(dp0
Vsoma
p1
(lp2
cnumpy.core.multiarray
scalar
p3
(cnumpy
dtype
p4
(S'f8'
p5
I0
I1
tp6
Rp7
(I3
S'<'
p8
NNNI-1
I-1
I0
tp9
bS'YKQ<w,W?'
p10
tp11
Rp12
asVBdend
p13
(lp14
g3
(g7
S'yhd@\xa4\xd2W?'
p15
tp16
Rp17
asVAdend1
p18
(lp19
g3
(g7
S'\x19\xb5n"\xab9Z?'
p20
tp21
Rp22
asVAdend2
p23
(lp24
g3
(g7
S'\t\xa6\xff\x18\xc7\xe3]?'
p25
tp26
Rp27
asVAdend3
p28
(lp29
g3
(g7
S'39\xe6i\xb0x_?'
p30
tp31
Rp32
as.