(dp0
Vsoma
p1
(lp2
cnumpy.core.multiarray
scalar
p3
(cnumpy
dtype
p4
(S'f8'
p5
I0
I1
tp6
Rp7
(I3
S'<'
p8
NNNI-1
I-1
I0
tp9
bS'\xe0\xea\x84\x1al#D?'
p10
tp11
Rp12
asVAdend1
p13
(lp14
g3
(g7
S']\xd9:\xe4\xcaUK?'
p15
tp16
Rp17
asVAdend2
p18
(lp19
g3
(g7
S'\x89\xdc\xd8\xe8>5T?'
p20
tp21
Rp22
asVAdend3
p23
(lp24
g3
(g7
S'xa\x1c\xb8\xdc\xe1V?'
p25
tp26
Rp27
asVaxon
p28
(lp29
g3
(g7
S'\xff\xbb\xf9!\x1b\xd9a?'
p30
tp31
Rp32
asVBdend
p33
(lp34
g3
(g7
S'\xad\xb6M\xf2\x1d\xe6F?'
p35
tp36
Rp37
as.