(dp0
Vsoma
p1
(lp2
cnumpy.core.multiarray
scalar
p3
(cnumpy
dtype
p4
(S'f8'
p5
I0
I1
tp6
Rp7
(I3
S'<'
p8
NNNI-1
I-1
I0
tp9
bS'B\rBi\x18\xb1S?'
p10
tp11
Rp12
asVBdend
p13
(lp14
g3
(g7
S'p\xac\xe4Ma\x1aV?'
p15
tp16
Rp17
asVAdend1
p18
(lp19
g3
(g7
S'+3\xcb\x92\xa5\x86[?'
p20
tp21
Rp22
asVAdend2
p23
(lp24
g3
(g7
S"'TL\xf7<Je?"
p25
tp26
Rp27
asVAdend3
p28
(lp29
g3
(g7
S'\xbc\x83+\x1b\xbeth?'
p30
tp31
Rp32
as.