(dp0
Vsoma
p1
(lp2
cnumpy.core.multiarray
scalar
p3
(cnumpy
dtype
p4
(S'f8'
p5
I0
I1
tp6
Rp7
(I3
S'<'
p8
NNNI-1
I-1
I0
tp9
bS'F^\x13l\x03TB?'
p10
tp11
Rp12
asVdend
p13
(lp14
g3
(g7
S'\x89k\xde@kbB?'
p15
tp16
Rp17
as.