(dp0
S'synsPerConn'
p1
(dp2
S'TPO'
p3
I5
sS'S2'
p4
I5
sS'S1'
p5
I5
sS'OC'
p6
I5
sS'TVL'
p7
I5
sS'M2'
p8
I5
sS'cM1'
p9
I5
ssS'rates'
p10
(dp11
g3
(lp12
I0
aI5
asg4
(lp13
I0
aI5
asg5
(lp14
I0
aI5
asg6
(lp15
I0
aI5
asg7
(lp16
I0
aI5
asg8
(lp17
I0
aI5
asg9
(lp18
I0
aI5
assS'numSyns'
p19
(dp20
S'M1'
p21
(dp22
S'CT6'
p23
I8234
sS'PV2'
p24
I8234
sS'PV6'
p25
I8234
sS'SOM5A'
p26
I8234
sS'PT5B'
p27
I8234
sS'IT5B'
p28
I8234
sS'IT5A'
p29
I8234
sS'PV5A'
p30
I8234
sS'PV5B'
p31
I8234
sS'IT6'
p32
I8234
sS'IT4'
p33
I8234
sS'SOM2'
p34
I8234
sS'IT2'
p35
I8234
sS'SOM5B'
p36
I8234
sS'SOM6'
p37
I8234
ssS'Meyer'
p38
(dp39
g27
cnumpy.core.multiarray
scalar
p40
(cnumpy
dtype
p41
(S'f8'
p42
I0
I1
tp43
Rp44
(I3
S'<'
p45
NNNI-1
I-1
I0
tp46
bS'\xdb\xb6m\xdb\xb6O\xa4@'
p47
tp48
Rp49
sS'STL4'
p50
g49
sg32
g49
sg33
g49
sS'IT5'
p51
g49
sg35
g49
sS'IT3'
p52
g49
sssS'cmat'
p53
(dp54
(g4
S'PT'
p55
S'inh'
p56
tp57
(lp58
F4.0
aF3.0
aF2.0
as(g5
S'PV'
p59
g56
tp60
(lp61
F10.0
aF14.0
aF14.0
aF2.0
aF1.0
as(g5
S'SOM'
p62
S'exc'
p63
tp64
(lp65
F111.0
aF158.0
aF158.0
aF22.0
aF16.0
as(g9
g62
g56
tp66
(lp67
F2.0
aF1.0
aF1.0
aF9.0
aF14.0
aF5.0
as(g7
g59
g56
tp68
(lp69
F4.0
aF5.0
aF8.0
aF3.0
aF4.0
aF9.0
aF8.0
aF1.0
aF1.0
as(g7
S'IT'
p70
g56
tp71
(lp72
F4.0
aF5.0
aF8.0
aF3.0
aF2.0
aF4.0
aF4.0
aF2.0
aF1.0
as(g7
S'CT'
p73
g63
tp74
(lp75
F6.0
aF6.0
as(g9
g62
g63
tp76
(lp77
F22.0
aF14.0
aF14.0
aF105.0
aF158.0
aF58.0
as(g7
g70
g63
tp78
(lp79
F40.0
aF58.0
aF86.0
aF32.0
aF22.0
aF49.0
aF44.0
aF18.0
aF6.0
as(g3
g59
g56
tp80
(lp81
F3.0
aF9.0
aF9.0
aF7.0
aF3.0
aF1.0
aF1.0
aF0.0
aF0.0
as(g3
g62
g63
tp82
(lp83
F38.0
aF105.0
aF105.0
aF85.0
aF36.0
aF13.0
aF6.0
aF3.0
aF3.0
as(g6
g59
g56
tp84
(lp85
F2.0
aF3.0
aF3.0
aF3.0
aF9.0
as(g4
g55
g63
tp86
(lp87
F48.0
aF37.0
aF21.0
as(g3
g70
g56
tp88
(lp89
F3.0
aF9.0
aF9.0
aF7.0
aF3.0
aF1.0
aF1.0
aF0.0
aF0.0
as(g5
g70
g63
tp90
(lp91
F111.0
aF158.0
aF158.0
aF22.0
aF16.0
as(g6
g73
g56
tp92
(lp93
F9.0
as(g6
g55
g56
tp94
(lp95
F3.0
as(g7
g59
g63
tp96
(lp97
F40.0
aF58.0
aF86.0
aF32.0
aF46.0
aF104.0
aF93.0
aF8.0
aF8.0
as(g6
g59
g63
tp98
(lp99
F20.0
aF32.0
aF32.0
aF33.0
aF105.0
as(g4
g73
g56
tp100
(lp101
F2.0
as(g8
g73
g56
tp102
(lp103
F3.0
as(g6
g55
g63
tp104
(lp105
F33.0
as(g3
g55
g56
tp106
(lp107
F3.0
aF1.0
aF1.0
as(g9
g73
g56
tp108
(lp109
F5.0
as(g8
g73
g63
tp110
(lp111
F39.0
as(g8
g70
g56
tp112
(lp113
F1.0
aF1.0
aF1.0
aF6.0
aF9.0
aF3.0
as(g4
g62
g56
tp114
(lp115
F9.0
aF4.0
aF4.0
aF4.0
aF3.0
aF2.0
aF2.0
as(g9
g59
g56
tp116
(lp117
F2.0
aF1.0
aF1.0
aF9.0
aF14.0
aF5.0
as(g7
g55
g56
tp118
(lp119
F6.0
aF14.0
aF13.0
as(g4
g62
g63
tp120
(lp121
F105.0
aF48.0
aF48.0
aF48.0
aF37.0
aF21.0
aF21.0
as(g5
g62
g56
tp122
(lp123
F10.0
aF14.0
aF14.0
aF2.0
aF1.0
as(g9
g70
g56
tp124
(lp125
F2.0
aF1.0
aF1.0
aF9.0
aF14.0
aF5.0
as(g6
g62
g56
tp126
(lp127
F2.0
aF3.0
aF3.0
aF3.0
aF9.0
as(g4
g70
g56
tp128
(lp129
F9.0
aF4.0
aF4.0
aF4.0
aF3.0
aF2.0
aF2.0
as(g8
g55
g63
tp130
(lp131
F70.0
aF105.0
as(g5
g70
g56
tp132
(lp133
F10.0
aF14.0
aF14.0
aF2.0
aF1.0
as(g8
g62
g63
tp134
(lp135
F15.0
aF10.0
aF10.0
aF70.0
aF105.0
aF39.0
as(g8
g59
g56
tp136
(lp137
F1.0
aF1.0
aF1.0
aF6.0
aF9.0
aF3.0
as(g9
g73
g63
tp138
(lp139
F58.0
as(g5
g55
g63
tp140
(lp141
F22.0
as(g4
g70
g63
tp142
(lp143
F105.0
aF48.0
aF48.0
aF48.0
aF37.0
aF21.0
aF21.0
as(g3
g62
g56
tp144
(lp145
F3.0
aF9.0
aF9.0
aF7.0
aF3.0
aF1.0
aF1.0
aF0.0
aF0.0
as(g5
g59
g63
tp146
(lp147
F111.0
aF158.0
aF158.0
aF22.0
aF16.0
as(g3
g73
g63
tp148
(lp149
F3.0
aF3.0
as(g7
g62
g56
tp150
(lp151
F4.0
aF5.0
aF8.0
aF3.0
aF4.0
aF9.0
aF8.0
aF1.0
aF1.0
as(g7
g55
g63
tp152
(lp153
F70.0
aF158.0
aF142.0
as(g6
g73
g63
tp154
(lp155
F105.0
as(g9
g70
g63
tp156
(lp157
F22.0
aF14.0
aF14.0
aF105.0
aF158.0
aF58.0
as(g8
g62
g56
tp158
(lp159
F1.0
aF1.0
aF1.0
aF6.0
aF9.0
aF3.0
as(g3
g73
g56
tp160
(lp161
F0.0
aF0.0
as(g3
g59
g63
tp162
(lp163
F38.0
aF105.0
aF105.0
aF85.0
aF36.0
aF13.0
aF6.0
aF3.0
aF3.0
as(g5
g73
g63
tp164
(lp165
F16.0
as(g6
g70
g56
tp166
(lp167
F2.0
aF3.0
aF3.0
aF3.0
aF9.0
as(g5
g55
g56
tp168
(lp169
F2.0
as(g4
g59
g56
tp170
(lp171
F9.0
aF4.0
aF4.0
aF4.0
aF3.0
aF2.0
aF2.0
as(g7
g73
g56
tp172
(lp173
F1.0
aF1.0
as(g5
g73
g56
tp174
(lp175
F1.0
as(g7
g62
g63
tp176
(lp177
F40.0
aF58.0
aF86.0
aF32.0
aF46.0
aF104.0
aF93.0
aF8.0
aF8.0
as(g6
g62
g63
tp178
(lp179
F20.0
aF32.0
aF32.0
aF33.0
aF105.0
as(g9
g55
g63
tp180
(lp181
F105.0
aF158.0
as(g4
g59
g63
tp182
(lp183
F105.0
aF48.0
aF48.0
aF48.0
aF37.0
aF21.0
aF21.0
as(g9
g59
g63
tp184
(lp185
F22.0
aF14.0
aF14.0
aF105.0
aF158.0
aF58.0
as(g3
g70
g63
tp186
(lp187
F38.0
aF105.0
aF105.0
aF85.0
aF36.0
aF13.0
aF6.0
aF3.0
aF3.0
as(g3
g55
g63
tp188
(lp189
F36.0
aF13.0
aF6.0
as(g9
g55
g56
tp190
(lp191
F9.0
aF14.0
as(g6
g70
g63
tp192
(lp193
F20.0
aF32.0
aF32.0
aF33.0
aF105.0
as(g8
g70
g63
tp194
(lp195
F15.0
aF10.0
aF10.0
aF70.0
aF105.0
aF39.0
as(g8
g55
g56
tp196
(lp197
F6.0
aF9.0
as(g4
g73
g63
tp198
(lp199
F21.0
as(g8
g59
g63
tp200
(lp201
F15.0
aF10.0
aF10.0
aF70.0
aF105.0
aF39.0
assS'delays'
p202
(dp203
g3
I5
sg4
I5
sg5
I5
sg6
I5
sg7
I5
sg8
I5
sg9
I5
ssS'wmat'
p204
(dp205
g3
F0.6
sg4
F0.5
sg5
F0.5
sg6
F0.5
sg7
F0.6
sg8
F0.5
sg9
F0.5
ssS'numCells'
p206
(dp207
g3
I600
sg4
I600
sg5
I600
sg6
I600
sg7
I600
sg8
I600
sg9
I600
ssS'bins'
p208
(dp209
(S'S1'
p210
S'CT'
p211
tp212
(lp213
(lp214
F0.77
aF1.0
aas(S'TPO'
p215
S'IT'
p216
tp217
(lp218
(lp219
F0.12
aF0.215
aa(lp220
F0.215
aF0.31
aa(lp221
F0.31
aF0.42
aa(lp222
F0.42
aF0.52
aa(lp223
F0.52
aF0.6033333333333334
aa(lp224
F0.6033333333333334
aF0.6866666666666666
aa(lp225
F0.6866666666666666
aF0.77
aa(lp226
F0.77
aF0.885
aa(lp227
F0.885
aF1.0
aas(g210
g216
tp228
(lp229
(lp230
F0.12
aF0.31
aa(lp231
F0.31
aF0.42
aa(lp232
F0.42
aF0.52
aa(lp233
F0.52
aF0.77
aag214
asS'Hooks13_OC'
p234
(lp235
(lp236
F0.12
aF0.31
aa(lp237
F0.31
aF0.42
aa(lp238
F0.42
aF0.52
aa(lp239
F0.52
aF0.77
aa(lp240
F0.77
aF1.0
aas(g9
g73
tp241
(lp242
(lp243
F0.77
aF1.0
aasS'Yama15elife'
p244
(lp245
(lp246
F0.1
aF0.2
aa(lp247
F0.2
aF0.3
aa(lp248
F0.3
aF0.4
aa(lp249
F0.4
aF0.5
aa(lp250
F0.5
aF0.6
aa(lp251
F0.6
aF0.7
aa(lp252
F0.7
aF0.8
aa(lp253
F0.8
aF0.9
aas(S'S2'
p254
g211
tp255
(lp256
(lp257
F0.77
aF1.0
aasS'Yama15'
p258
(lp259
g219
ag220
ag221
ag222
ag223
ag224
ag225
ag226
ag227
as(g215
S'PT'
p260
tp261
(lp262
g223
ag224
ag225
as(S'TVL'
p263
S'PV'
p264
tp265
g218
s(S'M2'
p266
g211
tp267
g242
sS'layers'
p268
(lp269
I0
aF0.12
aF0.31
aF0.42
aF0.52
aF0.77
aF1.0
as(g254
g216
tp270
(lp271
(lp272
F0.12
aF0.31
aa(lp273
F0.31
aF0.42
aa(lp274
F0.42
aF0.52
aa(lp275
F0.52
aF0.603
aa(lp276
F0.603
aF0.687
aa(lp277
F0.687
aF0.77
aag257
as(g9
g62
tp278
(lp279
(lp280
F0.12
aF0.31
aa(lp281
F0.31
aF0.42
aa(lp282
F0.43
aF0.52
aa(lp283
F0.52
aF0.645
aa(lp284
F0.645
aF0.77
aag243
as(g210
g260
tp285
(lp286
g233
as(g263
g211
tp287
(lp288
g226
ag227
as(S'OC'
p289
g211
tp290
(lp291
g240
as(g289
g264
tp292
g235
s(g254
S'SOM'
p293
tp294
g271
s(g263
g293
tp295
g218
s(g266
g293
tp296
g279
s(g263
g216
tp297
g218
s(g266
g216
tp298
g279
s(g266
g264
tp299
g279
sS'layerLabels'
p300
(lp301
S'pia'
p302
aS'L1-L2 border'
p303
aS'L2/3-L4 border'
p304
aS'L4-L5A border'
p305
aS'L5A-L5B border'
p306
aS'L5B-L6 border'
p307
aS'L6-WM border'
p308
as(g215
g293
tp309
g218
s(g289
g216
tp310
g235
s(g289
g293
tp311
g235
s(g210
g293
tp312
g229
s(g9
g70
tp313
g279
s(g9
g59
tp314
g279
sS'Yama15_labels'
p315
(lp316
S'L23u'
p317
aS'L23l'
p318
aS'L4'
p319
aS'L5A'
p320
aS'L5Bu'
p321
aS'L5Bm'
p322
aS'L5Bl'
p323
aS'L6u'
p324
aS'L6l'
p325
as(g266
g260
tp326
(lp327
g283
ag284
as(g215
g264
tp328
g218
s(g263
g260
tp329
g262
s(g210
g264
tp330
g229
sS'Mao11'
p331
(lp332
(lp333
F0.12
aF0.31
aa(lp334
F0.31
aF0.52
aa(lp335
F0.52
aF0.77
aa(lp336
F0.77
aF1.0
aasS'Hooks13_M2'
p337
g279
s(g289
g260
tp338
(lp339
g239
as(g215
g211
tp340
g288
s(g254
g264
tp341
g271
sS'Suter15'
p342
g271
s(g254
g260
tp343
(lp344
g275
ag276
ag277
as(g9
g55
tp345
g327
ss.