(dp0
Vsoma
p1
(lp2
cnumpy.core.multiarray
scalar
p3
(cnumpy
dtype
p4
(S'f8'
p5
I0
I1
tp6
Rp7
(I3
S'<'
p8
NNNI-1
I-1
I0
tp9
bS'\xb8\x16\xd8\xb0\x8e\xbaZ?'
p10
tp11
Rp12
asVBdend
p13
(lp14
g3
(g7
S'\x1a]\xfar\xeeM`?'
p15
tp16
Rp17
asVAdend1
p18
(lp19
g3
(g7
S'1lpdh\xffd?'
p20
tp21
Rp22
asVAdend2
p23
(lp24
g3
(g7
S'd\xb2\xeb\x0c\x1b\x1ct?'
p25
tp26
Rp27
asVAdend3
p28
(lp29
g3
(g7
S'Z\xa6`|j\x19{?'
p30
tp31
Rp32
as.