(dp0
Vsoma
p1
(lp2
cnumpy.core.multiarray
scalar
p3
(cnumpy
dtype
p4
(S'f8'
p5
I0
I1
tp6
Rp7
(I3
S'<'
p8
NNNI-1
I-1
I0
tp9
bS'B\x11rcL\x88B?'
p10
tp11
Rp12
asVAdend1
p13
(lp14
g3
(g7
S'kI\x7f\xe0F\x94K?'
p15
tp16
Rp17
asVAdend2
p18
(lp19
g3
(g7
S'\x96G\x8b\xfa\xa5\x84]?'
p20
tp21
Rp22
asVAdend3
p23
(lp24
g3
(g7
S'h<\xc41\xe3\xe9g?'
p25
tp26
Rp27
asVaxon
p28
(lp29
g3
(g7
S'\xa0\xf2\xe3\x8b2\tY?'
p30
tp31
Rp32
asVBdend
p33
(lp34
g3
(g7
S'\xd4\xa9U\x9a\x87\xafD?'
p35
tp36
Rp37
as.