ccopy_reg
_reconstructor
p0
(cnetpyne.specs
Dict
p1
c__builtin__
dict
p2
(dp3
S'secs'
p4
g0
(g1
g2
(dp5
S'axon'
p6
g0
(g1
g2
(dp7
S'weightNorm'
p8
(lp9
cnumpy.core.multiarray
scalar
p10
(cnumpy
dtype
p11
(S'f8'
p12
I0
I1
tp13
Rp14
(I3
S'<'
p15
NNNI-1
I-1
I0
tp16
bS'\xff\xbb\xf9!\x1b\xd9a?'
p17
tp18
Rp19
asS'ions'
p20
g0
(g1
g2
(dp21
S'na'
p22
g0
(g1
g2
(dp23
S'i'
p24
F10.0
sS'e'
p25
F42.0
sS'o'
p26
F140.0
stp27
Rp28
(dp29
g24
F10.0
sg25
F42.0
sg26
F140.0
sbsS'k'
p30
g0
(g1
g2
(dp31
S'i'
p32
F54.4
sS'e'
p33
F-104.0
sS'o'
p34
F2.5
stp35
Rp36
(dp37
g32
F54.4
sg33
F-104.0
sg34
F2.5
sbstp38
Rp39
(dp40
g22
(dp41
g24
F10.0
sg25
F42.0
sg26
F140.0
ssg30
(dp42
g32
F54.4
sg33
F-104.0
sg34
F2.5
ssbsS'mechs'
p43
g0
(g1
g2
(dp44
S'nax'
p45
g0
(g1
g2
(dp46
S'gbar'
p47
F0.73163310979
sS'sh'
p48
F0.0
stp49
Rp50
(dp51
g47
F0.73163310979
sg48
F0.0
sbsS'kap'
p52
g0
(g1
g2
(dp53
S'tq'
p54
F-55.772342395
sS'gbar'
p55
F1.5337607377099998
sS'sh'
p56
F0.0
sS'vhalfl'
p57
F-78.3762490029
sS'vhalfn'
p58
F32.7885075379
stp59
Rp60
(dp61
g54
F-55.772342395
sg55
F1.5337607377099998
sg56
F0.0
sg57
F-78.3762490029
sg58
F32.7885075379
sbsS'pas'
p62
g0
(g1
g2
(dp63
S'e'
p64
F-79.8821836579
sS'g'
p65
F0.00032045160242059065
stp66
Rp67
(dp68
g64
F-79.8821836579
sg65
F0.00032045160242059065
sbsS'kdr'
p69
g0
(g1
g2
(dp70
S'gbar'
p71
F0.025060310325199998
sS'sh'
p72
F0.0
sS'vhalfn'
p73
F11.6427471384
stp74
Rp75
(dp76
g71
F0.025060310325199998
sg72
F0.0
sg73
F11.6427471384
sbstp77
Rp78
(dp79
g45
(dp80
g47
F0.73163310979
sg48
F0.0
ssg52
(dp81
g54
F-55.772342395
sg55
F1.5337607377099998
sg56
F0.0
sg57
F-78.3762490029
sg58
F32.7885075379
ssg62
(dp82
g64
F-79.8821836579
sg65
F0.00032045160242059065
ssg69
(dp83
g71
F0.025060310325199998
sg72
F0.0
sg73
F11.6427471384
ssbsS'geom'
p84
g0
(g1
g2
(dp85
S'diam'
p86
F1.40966286462
sS'Ra'
p87
F114.969186163
sS'cm'
p88
F1.87389705992
sS'nseg'
p89
I1
sS'L'
p90
F594.292937602
sS'pt3d'
p91
(lp92
(lp93
I0
aI0
aI0
aF1.40966286462
aa(lp94
I0
aF-594.292937602
aI0
aF1.40966286462
aastp95
Rp96
(dp97
g86
F1.40966286462
sg88
F1.87389705992
sg89
I1
sg90
F594.292937602
sg87
F114.969186163
sg91
(lp98
(lp99
I0
aI0
aI0
aF1.40966286462
aa(lp100
I0
aF-594.292937602
aI0
aF1.40966286462
aasbsS'topol'
p101
g0
(g1
g2
(dp102
S'childX'
p103
F0.0
sS'parentSec'
p104
S'soma'
p105
sS'parentX'
p106
F0.0
stp107
Rp108
(dp109
g103
F0.0
sg104
g105
sg106
F0.0
sbsS'vinit'
p110
F-92.8364820902
stp111
Rp112
(dp113
g20
(dp114
g22
(dp115
g24
F10.0
sg25
F42.0
sg26
F140.0
ssg30
(dp116
g32
F54.4
sg33
F-104.0
sg34
F2.5
sssg43
(dp117
g45
(dp118
g47
F0.73163310979
sg48
F0.0
ssg52
(dp119
g54
F-55.772342395
sg55
F1.5337607377099998
sg56
F0.0
sg57
F-78.3762490029
sg58
F32.7885075379
ssg62
(dp120
g64
F-79.8821836579
sg65
F0.00032045160242059065
ssg69
(dp121
g71
F0.025060310325199998
sg72
F0.0
sg73
F11.6427471384
sssg8
(lp122
g19
asg84
(dp123
g86
F1.40966286462
sg88
F1.87389705992
sg89
I1
sg90
F594.292937602
sg87
F114.969186163
sg91
(lp124
(lp125
I0
aI0
aI0
aF1.40966286462
aa(lp126
I0
aF-594.292937602
aI0
aF1.40966286462
aassg101
(dp127
g103
F0.0
sg104
g105
sg106
F0.0
ssg110
F-92.8364820902
sbsS'Bdend'
p128
g0
(g1
g2
(dp129
g8
(lp130
g10
(g14
S'\xad\xb6M\xf2\x1d\xe6F?'
p131
tp132
Rp133
asg20
g0
(g1
g2
(dp134
S'na'
p135
g0
(g1
g2
(dp136
S'i'
p137
F10.0
sS'e'
p138
F42.0
sS'o'
p139
F140.0
stp140
Rp141
(dp142
g137
F10.0
sg138
F42.0
sg139
F140.0
sbsS'ca'
p143
g0
(g1
g2
(dp144
S'i'
p145
F5e-05
sS'e'
p146
F132.4579341637009
sS'o'
p147
F2.0
stp148
Rp149
(dp150
g145
F5e-05
sg146
F132.4579341637009
sg147
F2.0
sbsg30
g0
(g1
g2
(dp151
S'i'
p152
F54.4
sS'e'
p153
F-104.0
sS'o'
p154
F2.5
stp155
Rp156
(dp157
g152
F54.4
sg153
F-104.0
sg154
F2.5
sbstp158
Rp159
(dp160
g135
(dp161
g137
F10.0
sg138
F42.0
sg139
F140.0
ssg143
(dp162
g145
F5e-05
sg146
F132.4579341637009
sg147
F2.0
ssg30
(dp163
g152
F54.4
sg153
F-104.0
sg154
F2.5
ssbsg43
g0
(g1
g2
(dp164
S'kBK'
p165
g0
(g1
g2
(dp166
S'tau'
p167
F1.0
sS'caPmax'
p168
F1.0
sS'caPmin'
p169
F0.0
sS'caVhh'
p170
F0.002
sS'caVhmin'
p171
F-2.1899738592999967
sS'gpeak'
p172
F4.2923494376e-05
sS'caPh'
p173
F0.002
sS'caPk'
p174
F1.0
sS'k'
p175
F17.0
sS'caVhmax'
p176
F155.67
stp177
Rp178
(dp179
g167
F1.0
sg168
F1.0
sg169
F0.0
sg170
F0.002
sg171
F-2.1899738592999967
sg172
F4.2923494376e-05
sg173
F0.002
sg174
F1.0
sg175
F17.0
sg176
F155.67
sbsg62
g0
(g1
g2
(dp180
S'e'
p181
F-79.8821836579
sS'g'
p182
F8.5005383721367e-05
stp183
Rp184
(dp185
g181
F-79.8821836579
sg182
F8.5005383721367e-05
sbsS'cat'
p186
g0
(g1
g2
(dp187
S'gcatbar'
p188
F5.85477866612e-05
stp189
Rp190
(dp191
g188
F5.85477866612e-05
sbsS'ih'
p192
g0
(g1
g2
(dp193
S'aslope'
p194
F7.63692206734
sS'ashift'
p195
F115.040811905
sS'bslope'
p196
F37.2740194128
sS'gbar'
p197
F3.13760461868e-05
sS'bscale'
p198
F0.26993550346
sS'ascale'
p199
F0.00365676240119
stp200
Rp201
(dp202
g194
F7.63692206734
sg199
F0.00365676240119
sg198
F0.26993550346
sg197
F3.13760461868e-05
sg195
F115.040811905
sg196
F37.2740194128
sbsg52
g0
(g1
g2
(dp203
S'tq'
p204
F-55.772342395
sS'gbar'
p205
F0.306752147542
sS'sh'
p206
F0.0
sS'vhalfl'
p207
F-78.3762490029
sS'vhalfn'
p208
F32.7885075379
stp209
Rp210
(dp211
g204
F-55.772342395
sg205
F0.306752147542
sg206
F0.0
sg207
F-78.3762490029
sg208
F32.7885075379
sbsS'can'
p212
g0
(g1
g2
(dp213
S'gcanbar'
p214
F8.43780573752e-05
stp215
Rp216
(dp217
g214
F8.43780573752e-05
sbsg69
g0
(g1
g2
(dp218
S'gbar'
p219
F0.00501206206504
sS'sh'
p220
F0.0
sS'vhalfn'
p221
F11.6427471384
stp222
Rp223
(dp224
g219
F0.00501206206504
sg220
F0.0
sg221
F11.6427471384
sbsS'cal'
p225
g0
(g1
g2
(dp226
S'gcalbar'
p227
F7.79902252875e-05
stp228
Rp229
(dp230
g227
F7.79902252875e-05
sbsg45
g0
(g1
g2
(dp231
S'gbar'
p232
F0.146326621958
sS'sh'
p233
F0.0
stp234
Rp235
(dp236
g232
F0.146326621958
sg233
F0.0
sbsS'cadad'
p237
g0
(g1
g2
(dp238
S'taur'
p239
F99.1146852282
sS'depth'
p240
F0.119408607923
sS'kd'
p241
F0.0
sS'cainf'
p242
F0.00024
sS'kt'
p243
F0.0
stp244
Rp245
(dp246
g239
F99.1146852282
sg240
F0.119408607923
sg241
F0.0
sg242
F0.00024
sg243
F0.0
sbstp247
Rp248
(dp249
g165
(dp250
g167
F1.0
sg168
F1.0
sg169
F0.0
sg170
F0.002
sg171
F-2.1899738592999967
sg172
F4.2923494376e-05
sg173
F0.002
sg174
F1.0
sg175
F17.0
sg176
F155.67
ssg62
(dp251
g181
F-79.8821836579
sg182
F8.5005383721367e-05
ssg186
(dp252
g188
F5.85477866612e-05
ssg192
(dp253
g194
F7.63692206734
sg199
F0.00365676240119
sg198
F0.26993550346
sg197
F3.13760461868e-05
sg195
F115.040811905
sg196
F37.2740194128
ssg52
(dp254
g204
F-55.772342395
sg205
F0.306752147542
sg206
F0.0
sg207
F-78.3762490029
sg208
F32.7885075379
ssg212
(dp255
g214
F8.43780573752e-05
ssg69
(dp256
g219
F0.00501206206504
sg220
F0.0
sg221
F11.6427471384
ssg225
(dp257
g227
F7.79902252875e-05
ssg45
(dp258
g232
F0.146326621958
sg233
F0.0
ssg237
(dp259
g239
F99.1146852282
sg240
F0.119408607923
sg241
F0.0
sg242
F0.00024
sg243
F0.0
ssbsg84
g0
(g1
g2
(dp260
g86
F2.2799248874
sg87
F114.969186163
sg88
F2.46671987855
sg89
I1
sg90
F211.5
sg91
(lp261
(lp262
I0
aI0
aI0
aF2.2799248874
aa(lp263
F211.5
aI0
aI0
aF2.2799248874
aastp264
Rp265
(dp266
g86
F2.2799248874
sg88
F2.46671987855
sg89
I1
sg90
F211.5
sg87
F114.969186163
sg91
(lp267
(lp268
I0
aI0
aI0
aF2.2799248874
aa(lp269
F211.5
aI0
aI0
aF2.2799248874
aasbsg101
g0
(g1
g2
(dp270
g103
F0.0
sg104
g105
sg106
F0.5
stp271
Rp272
(dp273
g103
F0.0
sg104
g105
sg106
F0.5
sbsg110
F-92.8364820902
stp274
Rp275
(dp276
g20
(dp277
g135
(dp278
g137
F10.0
sg138
F42.0
sg139
F140.0
ssg143
(dp279
g145
F5e-05
sg146
F132.4579341637009
sg147
F2.0
ssg30
(dp280
g152
F54.4
sg153
F-104.0
sg154
F2.5
sssg43
(dp281
g165
(dp282
g167
F1.0
sg168
F1.0
sg169
F0.0
sg170
F0.002
sg171
F-2.1899738592999967
sg172
F4.2923494376e-05
sg173
F0.002
sg174
F1.0
sg175
F17.0
sg176
F155.67
ssg62
(dp283
g181
F-79.8821836579
sg182
F8.5005383721367e-05
ssg186
(dp284
g188
F5.85477866612e-05
ssg192
(dp285
g194
F7.63692206734
sg199
F0.00365676240119
sg198
F0.26993550346
sg197
F3.13760461868e-05
sg195
F115.040811905
sg196
F37.2740194128
ssg52
(dp286
g204
F-55.772342395
sg205
F0.306752147542
sg206
F0.0
sg207
F-78.3762490029
sg208
F32.7885075379
ssg212
(dp287
g214
F8.43780573752e-05
ssg69
(dp288
g219
F0.00501206206504
sg220
F0.0
sg221
F11.6427471384
ssg225
(dp289
g227
F7.79902252875e-05
ssg45
(dp290
g232
F0.146326621958
sg233
F0.0
ssg237
(dp291
g239
F99.1146852282
sg240
F0.119408607923
sg241
F0.0
sg242
F0.00024
sg243
F0.0
sssg8
(lp292
g133
asg84
(dp293
g86
F2.2799248874
sg88
F2.46671987855
sg89
I1
sg90
F211.5
sg87
F114.969186163
sg91
(lp294
(lp295
I0
aI0
aI0
aF2.2799248874
aa(lp296
F211.5
aI0
aI0
aF2.2799248874
aassg101
(dp297
g103
F0.0
sg104
g105
sg106
F0.5
ssg110
F-92.8364820902
sbsg105
g0
(g1
g2
(dp298
g8
(lp299
g10
(g14
S'\xe0\xea\x84\x1al#D?'
p300
tp301
Rp302
asg20
g0
(g1
g2
(dp303
S'na'
p304
g0
(g1
g2
(dp305
S'i'
p306
F10.0
sS'e'
p307
F42.0
sS'o'
p308
F140.0
stp309
Rp310
(dp311
g306
F10.0
sg307
F42.0
sg308
F140.0
sbsS'ca'
p312
g0
(g1
g2
(dp313
S'i'
p314
F5e-05
sS'e'
p315
F132.4579341637009
sS'o'
p316
F2.0
stp317
Rp318
(dp319
g314
F5e-05
sg315
F132.4579341637009
sg316
F2.0
sbsg30
g0
(g1
g2
(dp320
S'i'
p321
F54.4
sS'e'
p322
F-104.0
sS'o'
p323
F2.5
stp324
Rp325
(dp326
g321
F54.4
sg322
F-104.0
sg323
F2.5
sbstp327
Rp328
(dp329
g304
(dp330
g306
F10.0
sg307
F42.0
sg308
F140.0
ssg312
(dp331
g314
F5e-05
sg315
F132.4579341637009
sg316
F2.0
ssg30
(dp332
g321
F54.4
sg322
F-104.0
sg323
F2.5
ssbsg43
g0
(g1
g2
(dp333
g165
g0
(g1
g2
(dp334
S'tau'
p335
F1.0
sS'caPmax'
p336
F1.0
sS'caPmin'
p337
F0.0
sS'caVhh'
p338
F0.002
sS'caVhmin'
p339
F-2.1899738592999967
sS'gpeak'
p340
F4.2923494376e-05
sS'caPh'
p341
F0.002
sS'caPk'
p342
F1.0
sS'k'
p343
F17.0
sS'caVhmax'
p344
F155.67
stp345
Rp346
(dp347
g335
F1.0
sg336
F1.0
sg337
F0.0
sg338
F0.002
sg339
F-2.1899738592999967
sg340
F4.2923494376e-05
sg341
F0.002
sg342
F1.0
sg343
F17.0
sg344
F155.67
sbsg62
g0
(g1
g2
(dp348
S'e'
p349
F-79.8821836579
sS'g'
p350
F3.913592118479913e-05
stp351
Rp352
(dp353
g349
F-79.8821836579
sg350
F3.913592118479913e-05
sbsg186
g0
(g1
g2
(dp354
S'gcatbar'
p355
F5.85477866612e-05
stp356
Rp357
(dp358
g355
F5.85477866612e-05
sbsg192
g0
(g1
g2
(dp359
S'aslope'
p360
F7.63692206734
sS'ashift'
p361
F115.040811905
sS'bslope'
p362
F37.2740194128
sS'gbar'
p363
F3.13760461868e-05
sS'bscale'
p364
F0.26993550346
sS'ascale'
p365
F0.00365676240119
stp366
Rp367
(dp368
g360
F7.63692206734
sg365
F0.00365676240119
sg364
F0.26993550346
sg363
F3.13760461868e-05
sg361
F115.040811905
sg362
F37.2740194128
sbsg52
g0
(g1
g2
(dp369
S'tq'
p370
F-55.772342395
sS'gbar'
p371
F0.306752147542
sS'sh'
p372
F0.0
sS'vhalfl'
p373
F-78.3762490029
sS'vhalfn'
p374
F32.7885075379
stp375
Rp376
(dp377
g370
F-55.772342395
sg371
F0.306752147542
sg372
F0.0
sg373
F-78.3762490029
sg374
F32.7885075379
sbsg212
g0
(g1
g2
(dp378
S'gcanbar'
p379
F8.43780573752e-05
stp380
Rp381
(dp382
g379
F8.43780573752e-05
sbsg69
g0
(g1
g2
(dp383
S'gbar'
p384
F0.00501206206504
sS'sh'
p385
F0.0
sS'vhalfn'
p386
F11.6427471384
stp387
Rp388
(dp389
g384
F0.00501206206504
sg385
F0.0
sg386
F11.6427471384
sbsg225
g0
(g1
g2
(dp390
S'gcalbar'
p391
F7.79902252875e-05
stp392
Rp393
(dp394
g391
F7.79902252875e-05
sbsg45
g0
(g1
g2
(dp395
S'gbar'
p396
F0.146326621958
sS'sh'
p397
F0.0
stp398
Rp399
(dp400
g396
F0.146326621958
sg397
F0.0
sbsg237
g0
(g1
g2
(dp401
S'taur'
p402
F99.1146852282
sS'depth'
p403
F0.119408607923
sS'kd'
p404
F0.0
sS'cainf'
p405
F0.00024
sS'kt'
p406
F0.0
stp407
Rp408
(dp409
g402
F99.1146852282
sg403
F0.119408607923
sg404
F0.0
sg405
F0.00024
sg406
F0.0
sbstp410
Rp411
(dp412
g165
(dp413
g335
F1.0
sg336
F1.0
sg337
F0.0
sg338
F0.002
sg339
F-2.1899738592999967
sg340
F4.2923494376e-05
sg341
F0.002
sg342
F1.0
sg343
F17.0
sg344
F155.67
ssg62
(dp414
g349
F-79.8821836579
sg350
F3.913592118479913e-05
ssg186
(dp415
g355
F5.85477866612e-05
ssg192
(dp416
g360
F7.63692206734
sg365
F0.00365676240119
sg364
F0.26993550346
sg363
F3.13760461868e-05
sg361
F115.040811905
sg362
F37.2740194128
ssg52
(dp417
g370
F-55.772342395
sg371
F0.306752147542
sg372
F0.0
sg373
F-78.3762490029
sg374
F32.7885075379
ssg212
(dp418
g379
F8.43780573752e-05
ssg69
(dp419
g384
F0.00501206206504
sg385
F0.0
sg386
F11.6427471384
ssg225
(dp420
g391
F7.79902252875e-05
ssg45
(dp421
g396
F0.146326621958
sg397
F0.0
ssg237
(dp422
g402
F99.1146852282
sg403
F0.119408607923
sg404
F0.0
sg405
F0.00024
sg406
F0.0
ssbsg84
g0
(g1
g2
(dp423
g86
F28.2149102762
sg87
F114.969186163
sg88
F1.89133252551
sg89
I1
sg90
F48.4123467666
sg91
(lp424
(lp425
I0
aI0
aI0
aF28.2149102762
aa(lp426
I0
aF48.4123467666
aI0
aF28.2149102762
aastp427
Rp428
(dp429
g86
F28.2149102762
sg88
F1.89133252551
sg89
I1
sg90
F48.4123467666
sg87
F114.969186163
sg91
(lp430
(lp431
I0
aI0
aI0
aF28.2149102762
aa(lp432
I0
aF48.4123467666
aI0
aF28.2149102762
aasbsg101
g0
(g1
g2
(dp433
tp434
Rp435
sg110
F-92.8364820902
stp436
Rp437
(dp438
g20
(dp439
g304
(dp440
g306
F10.0
sg307
F42.0
sg308
F140.0
ssg312
(dp441
g314
F5e-05
sg315
F132.4579341637009
sg316
F2.0
ssg30
(dp442
g321
F54.4
sg322
F-104.0
sg323
F2.5
sssg43
(dp443
g165
(dp444
g335
F1.0
sg336
F1.0
sg337
F0.0
sg338
F0.002
sg339
F-2.1899738592999967
sg340
F4.2923494376e-05
sg341
F0.002
sg342
F1.0
sg343
F17.0
sg344
F155.67
ssg62
(dp445
g349
F-79.8821836579
sg350
F3.913592118479913e-05
ssg186
(dp446
g355
F5.85477866612e-05
ssg192
(dp447
g360
F7.63692206734
sg365
F0.00365676240119
sg364
F0.26993550346
sg363
F3.13760461868e-05
sg361
F115.040811905
sg362
F37.2740194128
ssg52
(dp448
g370
F-55.772342395
sg371
F0.306752147542
sg372
F0.0
sg373
F-78.3762490029
sg374
F32.7885075379
ssg212
(dp449
g379
F8.43780573752e-05
ssg69
(dp450
g384
F0.00501206206504
sg385
F0.0
sg386
F11.6427471384
ssg225
(dp451
g391
F7.79902252875e-05
ssg45
(dp452
g396
F0.146326621958
sg397
F0.0
ssg237
(dp453
g402
F99.1146852282
sg403
F0.119408607923
sg404
F0.0
sg405
F0.00024
sg406
F0.0
sssg8
(lp454
g302
asg84
(dp455
g86
F28.2149102762
sg88
F1.89133252551
sg89
I1
sg90
F48.4123467666
sg87
F114.969186163
sg91
(lp456
(lp457
I0
aI0
aI0
aF28.2149102762
aa(lp458
I0
aF48.4123467666
aI0
aF28.2149102762
aassg101
(dp459
sg110
F-92.8364820902
sbsS'Adend1'
p460
g0
(g1
g2
(dp461
g8
(lp462
g10
(g14
S']\xd9:\xe4\xcaUK?'
p463
tp464
Rp465
asg20
g0
(g1
g2
(dp466
S'na'
p467
g0
(g1
g2
(dp468
S'i'
p469
F10.0
sS'e'
p470
F42.0
sS'o'
p471
F140.0
stp472
Rp473
(dp474
g469
F10.0
sg470
F42.0
sg471
F140.0
sbsS'ca'
p475
g0
(g1
g2
(dp476
S'i'
p477
F5e-05
sS'e'
p478
F132.4579341637009
sS'o'
p479
F2.0
stp480
Rp481
(dp482
g477
F5e-05
sg478
F132.4579341637009
sg479
F2.0
sbsg30
g0
(g1
g2
(dp483
S'i'
p484
F54.4
sS'e'
p485
F-104.0
sS'o'
p486
F2.5
stp487
Rp488
(dp489
g484
F54.4
sg485
F-104.0
sg486
F2.5
sbstp490
Rp491
(dp492
g467
(dp493
g469
F10.0
sg470
F42.0
sg471
F140.0
ssg475
(dp494
g477
F5e-05
sg478
F132.4579341637009
sg479
F2.0
ssg30
(dp495
g484
F54.4
sg485
F-104.0
sg486
F2.5
ssbsg43
g0
(g1
g2
(dp496
g165
g0
(g1
g2
(dp497
S'tau'
p498
F1.0
sS'caPmax'
p499
F1.0
sS'caPmin'
p500
F0.0
sS'caVhh'
p501
F0.002
sS'caVhmin'
p502
F-2.1899738592999967
sS'gpeak'
p503
F4.2923494376e-05
sS'caPh'
p504
F0.002
sS'caPk'
p505
F1.0
sS'k'
p506
F17.0
sS'caVhmax'
p507
F155.67
stp508
Rp509
(dp510
g498
F1.0
sg499
F1.0
sg500
F0.0
sg501
F0.002
sg502
F-2.1899738592999967
sg503
F4.2923494376e-05
sg504
F0.002
sg505
F1.0
sg506
F17.0
sg507
F155.67
sbsg62
g0
(g1
g2
(dp511
S'e'
p512
F-79.8821836579
sS'g'
p513
F2.068954962610324e-05
stp514
Rp515
(dp516
g512
F-79.8821836579
sg513
F2.068954962610324e-05
sbsg186
g0
(g1
g2
(dp517
S'gcatbar'
p518
F5.85477866612e-05
stp519
Rp520
(dp521
g518
F5.85477866612e-05
sbsg192
g0
(g1
g2
(dp522
S'aslope'
p523
F7.63692206734
sS'ashift'
p524
F115.040811905
sS'bslope'
p525
F37.2740194128
sS'gbar'
p526
F3.13760461868e-05
sS'bscale'
p527
F0.26993550346
sS'ascale'
p528
F0.00365676240119
stp529
Rp530
(dp531
g523
F7.63692206734
sg528
F0.00365676240119
sg527
F0.26993550346
sg526
F3.13760461868e-05
sg524
F115.040811905
sg525
F37.2740194128
sbsg52
g0
(g1
g2
(dp532
S'tq'
p533
F-55.772342395
sS'gbar'
p534
F0.306752147542
sS'sh'
p535
F0.0
sS'vhalfl'
p536
F-78.3762490029
sS'vhalfn'
p537
F32.7885075379
stp538
Rp539
(dp540
g533
F-55.772342395
sg534
F0.306752147542
sg535
F0.0
sg536
F-78.3762490029
sg537
F32.7885075379
sbsg212
g0
(g1
g2
(dp541
S'gcanbar'
p542
F8.43780573752e-05
stp543
Rp544
(dp545
g542
F8.43780573752e-05
sbsg69
g0
(g1
g2
(dp546
S'gbar'
p547
F0.00501206206504
sS'sh'
p548
F0.0
sS'vhalfn'
p549
F11.6427471384
stp550
Rp551
(dp552
g547
F0.00501206206504
sg548
F0.0
sg549
F11.6427471384
sbsg225
g0
(g1
g2
(dp553
S'gcalbar'
p554
F7.79902252875e-05
stp555
Rp556
(dp557
g554
F7.79902252875e-05
sbsg45
g0
(g1
g2
(dp558
S'gbar'
p559
F0.146326621958
sS'sh'
p560
F0.0
stp561
Rp562
(dp563
g559
F0.146326621958
sg560
F0.0
sbsg237
g0
(g1
g2
(dp564
S'taur'
p565
F99.1146852282
sS'depth'
p566
F0.119408607923
sS'kd'
p567
F0.0
sS'cainf'
p568
F0.00024
sS'kt'
p569
F0.0
stp570
Rp571
(dp572
g565
F99.1146852282
sg566
F0.119408607923
sg567
F0.0
sg568
F0.00024
sg569
F0.0
sbstp573
Rp574
(dp575
g165
(dp576
g498
F1.0
sg499
F1.0
sg500
F0.0
sg501
F0.002
sg502
F-2.1899738592999967
sg503
F4.2923494376e-05
sg504
F0.002
sg505
F1.0
sg506
F17.0
sg507
F155.67
ssg62
(dp577
g512
F-79.8821836579
sg513
F2.068954962610324e-05
ssg186
(dp578
g518
F5.85477866612e-05
ssg192
(dp579
g523
F7.63692206734
sg528
F0.00365676240119
sg527
F0.26993550346
sg526
F3.13760461868e-05
sg524
F115.040811905
sg525
F37.2740194128
ssg52
(dp580
g533
F-55.772342395
sg534
F0.306752147542
sg535
F0.0
sg536
F-78.3762490029
sg537
F32.7885075379
ssg212
(dp581
g542
F8.43780573752e-05
ssg69
(dp582
g547
F0.00501206206504
sg548
F0.0
sg549
F11.6427471384
ssg225
(dp583
g554
F7.79902252875e-05
ssg45
(dp584
g559
F0.146326621958
sg560
F0.0
ssg237
(dp585
g565
F99.1146852282
sg566
F0.119408607923
sg567
F0.0
sg568
F0.00024
sg569
F0.0
ssbsg84
g0
(g1
g2
(dp586
g86
F1.5831889597
sg87
F114.969186163
sg88
F2.49841939531
sg89
I1
sg90
F211.5
sg91
(lp587
(lp588
I0
aF48.4123467666
aI0
aF1.5831889597
aa(lp589
I0
aF259.9123467666
aI0
aF1.5831889597
aastp590
Rp591
(dp592
g86
F1.5831889597
sg88
F2.49841939531
sg89
I1
sg90
F211.5
sg87
F114.969186163
sg91
(lp593
(lp594
I0
aF48.4123467666
aI0
aF1.5831889597
aa(lp595
I0
aF259.9123467666
aI0
aF1.5831889597
aasbsg101
g0
(g1
g2
(dp596
g103
F0.0
sg104
g105
sg106
F1.0
stp597
Rp598
(dp599
g103
F0.0
sg104
g105
sg106
F1.0
sbsg110
F-92.8364820902
stp600
Rp601
(dp602
g20
(dp603
g467
(dp604
g469
F10.0
sg470
F42.0
sg471
F140.0
ssg475
(dp605
g477
F5e-05
sg478
F132.4579341637009
sg479
F2.0
ssg30
(dp606
g484
F54.4
sg485
F-104.0
sg486
F2.5
sssg43
(dp607
g165
(dp608
g498
F1.0
sg499
F1.0
sg500
F0.0
sg501
F0.002
sg502
F-2.1899738592999967
sg503
F4.2923494376e-05
sg504
F0.002
sg505
F1.0
sg506
F17.0
sg507
F155.67
ssg62
(dp609
g512
F-79.8821836579
sg513
F2.068954962610324e-05
ssg186
(dp610
g518
F5.85477866612e-05
ssg192
(dp611
g523
F7.63692206734
sg528
F0.00365676240119
sg527
F0.26993550346
sg526
F3.13760461868e-05
sg524
F115.040811905
sg525
F37.2740194128
ssg52
(dp612
g533
F-55.772342395
sg534
F0.306752147542
sg535
F0.0
sg536
F-78.3762490029
sg537
F32.7885075379
ssg212
(dp613
g542
F8.43780573752e-05
ssg69
(dp614
g547
F0.00501206206504
sg548
F0.0
sg549
F11.6427471384
ssg225
(dp615
g554
F7.79902252875e-05
ssg45
(dp616
g559
F0.146326621958
sg560
F0.0
ssg237
(dp617
g565
F99.1146852282
sg566
F0.119408607923
sg567
F0.0
sg568
F0.00024
sg569
F0.0
sssg8
(lp618
g465
asg84
(dp619
g86
F1.5831889597
sg88
F2.49841939531
sg89
I1
sg90
F211.5
sg87
F114.969186163
sg91
(lp620
(lp621
I0
aF48.4123467666
aI0
aF1.5831889597
aa(lp622
I0
aF259.9123467666
aI0
aF1.5831889597
aassg101
(dp623
g103
F0.0
sg104
g105
sg106
F1.0
ssg110
F-92.8364820902
sbsS'Adend2'
p624
g0
(g1
g2
(dp625
g8
(lp626
g10
(g14
S'\x89\xdc\xd8\xe8>5T?'
p627
tp628
Rp629
asg20
g0
(g1
g2
(dp630
S'na'
p631
g0
(g1
g2
(dp632
S'i'
p633
F10.0
sS'e'
p634
F42.0
sS'o'
p635
F140.0
stp636
Rp637
(dp638
g633
F10.0
sg634
F42.0
sg635
F140.0
sbsS'ca'
p639
g0
(g1
g2
(dp640
S'i'
p641
F5e-05
sS'e'
p642
F132.4579341637009
sS'o'
p643
F2.0
stp644
Rp645
(dp646
g641
F5e-05
sg642
F132.4579341637009
sg643
F2.0
sbsg30
g0
(g1
g2
(dp647
S'i'
p648
F54.4
sS'e'
p649
F-104.0
sS'o'
p650
F2.5
stp651
Rp652
(dp653
g648
F54.4
sg649
F-104.0
sg650
F2.5
sbstp654
Rp655
(dp656
g631
(dp657
g633
F10.0
sg634
F42.0
sg635
F140.0
ssg639
(dp658
g641
F5e-05
sg642
F132.4579341637009
sg643
F2.0
ssg30
(dp659
g648
F54.4
sg649
F-104.0
sg650
F2.5
ssbsg43
g0
(g1
g2
(dp660
g165
g0
(g1
g2
(dp661
S'tau'
p662
F1.0
sS'caPmax'
p663
F1.0
sS'caPmin'
p664
F0.0
sS'caVhh'
p665
F0.002
sS'caVhmin'
p666
F-2.1899738592999967
sS'gpeak'
p667
F4.2923494376e-05
sS'caPh'
p668
F0.002
sS'caPk'
p669
F1.0
sS'k'
p670
F17.0
sS'caVhmax'
p671
F155.67
stp672
Rp673
(dp674
g662
F1.0
sg663
F1.0
sg664
F0.0
sg665
F0.002
sg666
F-2.1899738592999967
sg667
F4.2923494376e-05
sg668
F0.002
sg669
F1.0
sg670
F17.0
sg671
F155.67
sbsg62
g0
(g1
g2
(dp675
S'e'
p676
F-79.8821836579
sS'g'
p677
F2.068954962610324e-05
stp678
Rp679
(dp680
g676
F-79.8821836579
sg677
F2.068954962610324e-05
sbsg186
g0
(g1
g2
(dp681
S'gcatbar'
p682
F5.85477866612e-05
stp683
Rp684
(dp685
g682
F5.85477866612e-05
sbsg192
g0
(g1
g2
(dp686
S'aslope'
p687
F7.63692206734
sS'ashift'
p688
F115.040811905
sS'bslope'
p689
F37.2740194128
sS'gbar'
p690
F3.13760461868e-05
sS'bscale'
p691
F0.26993550346
sS'ascale'
p692
F0.00365676240119
stp693
Rp694
(dp695
g687
F7.63692206734
sg692
F0.00365676240119
sg691
F0.26993550346
sg690
F3.13760461868e-05
sg688
F115.040811905
sg689
F37.2740194128
sbsg52
g0
(g1
g2
(dp696
S'tq'
p697
F-55.772342395
sS'gbar'
p698
F0.306752147542
sS'sh'
p699
F0.0
sS'vhalfl'
p700
F-78.3762490029
sS'vhalfn'
p701
F32.7885075379
stp702
Rp703
(dp704
g697
F-55.772342395
sg698
F0.306752147542
sg699
F0.0
sg700
F-78.3762490029
sg701
F32.7885075379
sbsg212
g0
(g1
g2
(dp705
S'gcanbar'
p706
F8.43780573752e-05
stp707
Rp708
(dp709
g706
F8.43780573752e-05
sbsg69
g0
(g1
g2
(dp710
S'gbar'
p711
F0.00501206206504
sS'sh'
p712
F0.0
sS'vhalfn'
p713
F11.6427471384
stp714
Rp715
(dp716
g711
F0.00501206206504
sg712
F0.0
sg713
F11.6427471384
sbsg225
g0
(g1
g2
(dp717
S'gcalbar'
p718
F7.79902252875e-05
stp719
Rp720
(dp721
g718
F7.79902252875e-05
sbsg45
g0
(g1
g2
(dp722
S'gbar'
p723
F0.146326621958
sS'sh'
p724
F0.0
stp725
Rp726
(dp727
g723
F0.146326621958
sg724
F0.0
sbsg237
g0
(g1
g2
(dp728
S'taur'
p729
F99.1146852282
sS'depth'
p730
F0.119408607923
sS'kd'
p731
F0.0
sS'cainf'
p732
F0.00024
sS'kt'
p733
F0.0
stp734
Rp735
(dp736
g729
F99.1146852282
sg730
F0.119408607923
sg731
F0.0
sg732
F0.00024
sg733
F0.0
sbstp737
Rp738
(dp739
g165
(dp740
g662
F1.0
sg663
F1.0
sg664
F0.0
sg665
F0.002
sg666
F-2.1899738592999967
sg667
F4.2923494376e-05
sg668
F0.002
sg669
F1.0
sg670
F17.0
sg671
F155.67
ssg62
(dp741
g676
F-79.8821836579
sg677
F2.068954962610324e-05
ssg186
(dp742
g682
F5.85477866612e-05
ssg192
(dp743
g687
F7.63692206734
sg692
F0.00365676240119
sg691
F0.26993550346
sg690
F3.13760461868e-05
sg688
F115.040811905
sg689
F37.2740194128
ssg52
(dp744
g697
F-55.772342395
sg698
F0.306752147542
sg699
F0.0
sg700
F-78.3762490029
sg701
F32.7885075379
ssg212
(dp745
g706
F8.43780573752e-05
ssg69
(dp746
g711
F0.00501206206504
sg712
F0.0
sg713
F11.6427471384
ssg225
(dp747
g718
F7.79902252875e-05
ssg45
(dp748
g723
F0.146326621958
sg724
F0.0
ssg237
(dp749
g729
F99.1146852282
sg730
F0.119408607923
sg731
F0.0
sg732
F0.00024
sg733
F0.0
ssbsg84
g0
(g1
g2
(dp750
g86
F1.5831889597
sg87
F114.969186163
sg88
F2.49841939531
sg89
I1
sg90
F211.5
sg91
(lp751
(lp752
I0
aF259.9123467666
aI0
aF1.5831889597
aa(lp753
I0
aF471.4123467666
aI0
aF1.5831889597
aastp754
Rp755
(dp756
g86
F1.5831889597
sg88
F2.49841939531
sg89
I1
sg90
F211.5
sg87
F114.969186163
sg91
(lp757
(lp758
I0
aF259.9123467666
aI0
aF1.5831889597
aa(lp759
I0
aF471.4123467666
aI0
aF1.5831889597
aasbsg101
g0
(g1
g2
(dp760
g103
F0.0
sg104
g460
sg106
F1.0
stp761
Rp762
(dp763
g103
F0.0
sg104
g460
sg106
F1.0
sbsg110
F-92.8364820902
stp764
Rp765
(dp766
g20
(dp767
g631
(dp768
g633
F10.0
sg634
F42.0
sg635
F140.0
ssg639
(dp769
g641
F5e-05
sg642
F132.4579341637009
sg643
F2.0
ssg30
(dp770
g648
F54.4
sg649
F-104.0
sg650
F2.5
sssg43
(dp771
g165
(dp772
g662
F1.0
sg663
F1.0
sg664
F0.0
sg665
F0.002
sg666
F-2.1899738592999967
sg667
F4.2923494376e-05
sg668
F0.002
sg669
F1.0
sg670
F17.0
sg671
F155.67
ssg62
(dp773
g676
F-79.8821836579
sg677
F2.068954962610324e-05
ssg186
(dp774
g682
F5.85477866612e-05
ssg192
(dp775
g687
F7.63692206734
sg692
F0.00365676240119
sg691
F0.26993550346
sg690
F3.13760461868e-05
sg688
F115.040811905
sg689
F37.2740194128
ssg52
(dp776
g697
F-55.772342395
sg698
F0.306752147542
sg699
F0.0
sg700
F-78.3762490029
sg701
F32.7885075379
ssg212
(dp777
g706
F8.43780573752e-05
ssg69
(dp778
g711
F0.00501206206504
sg712
F0.0
sg713
F11.6427471384
ssg225
(dp779
g718
F7.79902252875e-05
ssg45
(dp780
g723
F0.146326621958
sg724
F0.0
ssg237
(dp781
g729
F99.1146852282
sg730
F0.119408607923
sg731
F0.0
sg732
F0.00024
sg733
F0.0
sssg8
(lp782
g629
asg84
(dp783
g86
F1.5831889597
sg88
F2.49841939531
sg89
I1
sg90
F211.5
sg87
F114.969186163
sg91
(lp784
(lp785
I0
aF259.9123467666
aI0
aF1.5831889597
aa(lp786
I0
aF471.4123467666
aI0
aF1.5831889597
aassg101
(dp787
g103
F0.0
sg104
g460
sg106
F1.0
ssg110
F-92.8364820902
sbsS'Adend3'
p788
g0
(g1
g2
(dp789
g8
(lp790
g10
(g14
S'xa\x1c\xb8\xdc\xe1V?'
p791
tp792
Rp793
asg20
g0
(g1
g2
(dp794
S'na'
p795
g0
(g1
g2
(dp796
S'i'
p797
F10.0
sS'e'
p798
F42.0
sS'o'
p799
F140.0
stp800
Rp801
(dp802
g797
F10.0
sg798
F42.0
sg799
F140.0
sbsS'ca'
p803
g0
(g1
g2
(dp804
S'i'
p805
F5e-05
sS'e'
p806
F132.4579341637009
sS'o'
p807
F2.0
stp808
Rp809
(dp810
g805
F5e-05
sg806
F132.4579341637009
sg807
F2.0
sbsg30
g0
(g1
g2
(dp811
S'i'
p812
F54.4
sS'e'
p813
F-104.0
sS'o'
p814
F2.5
stp815
Rp816
(dp817
g812
F54.4
sg813
F-104.0
sg814
F2.5
sbstp818
Rp819
(dp820
g795
(dp821
g797
F10.0
sg798
F42.0
sg799
F140.0
ssg803
(dp822
g805
F5e-05
sg806
F132.4579341637009
sg807
F2.0
ssg30
(dp823
g812
F54.4
sg813
F-104.0
sg814
F2.5
ssbsg43
g0
(g1
g2
(dp824
g165
g0
(g1
g2
(dp825
S'tau'
p826
F1.0
sS'caPmax'
p827
F1.0
sS'caPmin'
p828
F0.0
sS'caVhh'
p829
F0.002
sS'caVhmin'
p830
F-2.1899738592999967
sS'gpeak'
p831
F4.2923494376e-05
sS'caPh'
p832
F0.002
sS'caPk'
p833
F1.0
sS'k'
p834
F17.0
sS'caVhmax'
p835
F155.67
stp836
Rp837
(dp838
g826
F1.0
sg827
F1.0
sg828
F0.0
sg829
F0.002
sg830
F-2.1899738592999967
sg831
F4.2923494376e-05
sg832
F0.002
sg833
F1.0
sg834
F17.0
sg835
F155.67
sbsg62
g0
(g1
g2
(dp839
S'e'
p840
F-79.8821836579
sS'g'
p841
F2.068954962610324e-05
stp842
Rp843
(dp844
g840
F-79.8821836579
sg841
F2.068954962610324e-05
sbsg186
g0
(g1
g2
(dp845
S'gcatbar'
p846
F5.85477866612e-05
stp847
Rp848
(dp849
g846
F5.85477866612e-05
sbsg192
g0
(g1
g2
(dp850
S'aslope'
p851
F7.63692206734
sS'ashift'
p852
F115.040811905
sS'bslope'
p853
F37.2740194128
sS'gbar'
p854
F3.13760461868e-05
sS'bscale'
p855
F0.26993550346
sS'ascale'
p856
F0.00365676240119
stp857
Rp858
(dp859
g851
F7.63692206734
sg856
F0.00365676240119
sg855
F0.26993550346
sg854
F3.13760461868e-05
sg852
F115.040811905
sg853
F37.2740194128
sbsg52
g0
(g1
g2
(dp860
S'tq'
p861
F-55.772342395
sS'gbar'
p862
F0.306752147542
sS'sh'
p863
F0.0
sS'vhalfl'
p864
F-78.3762490029
sS'vhalfn'
p865
F32.7885075379
stp866
Rp867
(dp868
g861
F-55.772342395
sg862
F0.306752147542
sg863
F0.0
sg864
F-78.3762490029
sg865
F32.7885075379
sbsg212
g0
(g1
g2
(dp869
S'gcanbar'
p870
F8.43780573752e-05
stp871
Rp872
(dp873
g870
F8.43780573752e-05
sbsg69
g0
(g1
g2
(dp874
S'gbar'
p875
F0.00501206206504
sS'sh'
p876
F0.0
sS'vhalfn'
p877
F11.6427471384
stp878
Rp879
(dp880
g875
F0.00501206206504
sg876
F0.0
sg877
F11.6427471384
sbsg225
g0
(g1
g2
(dp881
S'gcalbar'
p882
F7.79902252875e-05
stp883
Rp884
(dp885
g882
F7.79902252875e-05
sbsg45
g0
(g1
g2
(dp886
S'gbar'
p887
F0.146326621958
sS'sh'
p888
F0.0
stp889
Rp890
(dp891
g887
F0.146326621958
sg888
F0.0
sbsg237
g0
(g1
g2
(dp892
S'taur'
p893
F99.1146852282
sS'depth'
p894
F0.119408607923
sS'kd'
p895
F0.0
sS'cainf'
p896
F0.00024
sS'kt'
p897
F0.0
stp898
Rp899
(dp900
g893
F99.1146852282
sg894
F0.119408607923
sg895
F0.0
sg896
F0.00024
sg897
F0.0
sbstp901
Rp902
(dp903
g165
(dp904
g826
F1.0
sg827
F1.0
sg828
F0.0
sg829
F0.002
sg830
F-2.1899738592999967
sg831
F4.2923494376e-05
sg832
F0.002
sg833
F1.0
sg834
F17.0
sg835
F155.67
ssg62
(dp905
g840
F-79.8821836579
sg841
F2.068954962610324e-05
ssg186
(dp906
g846
F5.85477866612e-05
ssg192
(dp907
g851
F7.63692206734
sg856
F0.00365676240119
sg855
F0.26993550346
sg854
F3.13760461868e-05
sg852
F115.040811905
sg853
F37.2740194128
ssg52
(dp908
g861
F-55.772342395
sg862
F0.306752147542
sg863
F0.0
sg864
F-78.3762490029
sg865
F32.7885075379
ssg212
(dp909
g870
F8.43780573752e-05
ssg69
(dp910
g875
F0.00501206206504
sg876
F0.0
sg877
F11.6427471384
ssg225
(dp911
g882
F7.79902252875e-05
ssg45
(dp912
g887
F0.146326621958
sg888
F0.0
ssg237
(dp913
g893
F99.1146852282
sg894
F0.119408607923
sg895
F0.0
sg896
F0.00024
sg897
F0.0
ssbsg84
g0
(g1
g2
(dp914
g86
F1.5831889597
sg87
F114.969186163
sg88
F2.49841939531
sg89
I1
sg90
F211.5
sg91
(lp915
(lp916
I0
aF471.4123467666
aI0
aF1.5831889597
aa(lp917
I0
aF682.9123467666
aI0
aF1.5831889597
aastp918
Rp919
(dp920
g86
F1.5831889597
sg88
F2.49841939531
sg89
I1
sg90
F211.5
sg87
F114.969186163
sg91
(lp921
(lp922
I0
aF471.4123467666
aI0
aF1.5831889597
aa(lp923
I0
aF682.9123467666
aI0
aF1.5831889597
aasbsg101
g0
(g1
g2
(dp924
g103
F0.0
sg104
g624
sg106
F1.0
stp925
Rp926
(dp927
g103
F0.0
sg104
g624
sg106
F1.0
sbsg110
F-92.8364820902
stp928
Rp929
(dp930
g20
(dp931
g795
(dp932
g797
F10.0
sg798
F42.0
sg799
F140.0
ssg803
(dp933
g805
F5e-05
sg806
F132.4579341637009
sg807
F2.0
ssg30
(dp934
g812
F54.4
sg813
F-104.0
sg814
F2.5
sssg43
(dp935
g165
(dp936
g826
F1.0
sg827
F1.0
sg828
F0.0
sg829
F0.002
sg830
F-2.1899738592999967
sg831
F4.2923494376e-05
sg832
F0.002
sg833
F1.0
sg834
F17.0
sg835
F155.67
ssg62
(dp937
g840
F-79.8821836579
sg841
F2.068954962610324e-05
ssg186
(dp938
g846
F5.85477866612e-05
ssg192
(dp939
g851
F7.63692206734
sg856
F0.00365676240119
sg855
F0.26993550346
sg854
F3.13760461868e-05
sg852
F115.040811905
sg853
F37.2740194128
ssg52
(dp940
g861
F-55.772342395
sg862
F0.306752147542
sg863
F0.0
sg864
F-78.3762490029
sg865
F32.7885075379
ssg212
(dp941
g870
F8.43780573752e-05
ssg69
(dp942
g875
F0.00501206206504
sg876
F0.0
sg877
F11.6427471384
ssg225
(dp943
g882
F7.79902252875e-05
ssg45
(dp944
g887
F0.146326621958
sg888
F0.0
ssg237
(dp945
g893
F99.1146852282
sg894
F0.119408607923
sg895
F0.0
sg896
F0.00024
sg897
F0.0
sssg8
(lp946
g793
asg84
(dp947
g86
F1.5831889597
sg88
F2.49841939531
sg89
I1
sg90
F211.5
sg87
F114.969186163
sg91
(lp948
(lp949
I0
aF471.4123467666
aI0
aF1.5831889597
aa(lp950
I0
aF682.9123467666
aI0
aF1.5831889597
aassg101
(dp951
g103
F0.0
sg104
g624
sg106
F1.0
ssg110
F-92.8364820902
sbstp952
Rp953
(dp954
g105
(dp955
g20
(dp956
g304
(dp957
g306
F10.0
sg307
F42.0
sg308
F140.0
ssg312
(dp958
g314
F5e-05
sg315
F132.4579341637009
sg316
F2.0
ssg30
(dp959
g321
F54.4
sg322
F-104.0
sg323
F2.5
sssg43
(dp960
g165
(dp961
g335
F1.0
sg336
F1.0
sg337
F0.0
sg338
F0.002
sg339
F-2.1899738592999967
sg340
F4.2923494376e-05
sg341
F0.002
sg342
F1.0
sg343
F17.0
sg344
F155.67
ssg62
(dp962
g349
F-79.8821836579
sg350
F3.913592118479913e-05
ssg186
(dp963
g355
F5.85477866612e-05
ssg192
(dp964
g360
F7.63692206734
sg365
F0.00365676240119
sg364
F0.26993550346
sg363
F3.13760461868e-05
sg361
F115.040811905
sg362
F37.2740194128
ssg52
(dp965
g370
F-55.772342395
sg371
F0.306752147542
sg372
F0.0
sg373
F-78.3762490029
sg374
F32.7885075379
ssg212
(dp966
g379
F8.43780573752e-05
ssg69
(dp967
g384
F0.00501206206504
sg385
F0.0
sg386
F11.6427471384
ssg225
(dp968
g391
F7.79902252875e-05
ssg45
(dp969
g396
F0.146326621958
sg397
F0.0
ssg237
(dp970
g402
F99.1146852282
sg403
F0.119408607923
sg404
F0.0
sg405
F0.00024
sg406
F0.0
sssg8
(lp971
g302
asg84
(dp972
g86
F28.2149102762
sg88
F1.89133252551
sg89
I1
sg90
F48.4123467666
sg87
F114.969186163
sg91
(lp973
(lp974
I0
aI0
aI0
aF28.2149102762
aa(lp975
I0
aF48.4123467666
aI0
aF28.2149102762
aassg101
(dp976
sg110
F-92.8364820902
ssg460
(dp977
g20
(dp978
g467
(dp979
g469
F10.0
sg470
F42.0
sg471
F140.0
ssg475
(dp980
g477
F5e-05
sg478
F132.4579341637009
sg479
F2.0
ssg30
(dp981
g484
F54.4
sg485
F-104.0
sg486
F2.5
sssg43
(dp982
g165
(dp983
g498
F1.0
sg499
F1.0
sg500
F0.0
sg501
F0.002
sg502
F-2.1899738592999967
sg503
F4.2923494376e-05
sg504
F0.002
sg505
F1.0
sg506
F17.0
sg507
F155.67
ssg62
(dp984
g512
F-79.8821836579
sg513
F2.068954962610324e-05
ssg186
(dp985
g518
F5.85477866612e-05
ssg192
(dp986
g523
F7.63692206734
sg528
F0.00365676240119
sg527
F0.26993550346
sg526
F3.13760461868e-05
sg524
F115.040811905
sg525
F37.2740194128
ssg52
(dp987
g533
F-55.772342395
sg534
F0.306752147542
sg535
F0.0
sg536
F-78.3762490029
sg537
F32.7885075379
ssg212
(dp988
g542
F8.43780573752e-05
ssg69
(dp989
g547
F0.00501206206504
sg548
F0.0
sg549
F11.6427471384
ssg225
(dp990
g554
F7.79902252875e-05
ssg45
(dp991
g559
F0.146326621958
sg560
F0.0
ssg237
(dp992
g565
F99.1146852282
sg566
F0.119408607923
sg567
F0.0
sg568
F0.00024
sg569
F0.0
sssg8
(lp993
g465
asg84
(dp994
g86
F1.5831889597
sg88
F2.49841939531
sg89
I1
sg90
F211.5
sg87
F114.969186163
sg91
(lp995
(lp996
I0
aF48.4123467666
aI0
aF1.5831889597
aa(lp997
I0
aF259.9123467666
aI0
aF1.5831889597
aassg101
(dp998
g103
F0.0
sg104
g105
sg106
F1.0
ssg110
F-92.8364820902
ssg624
(dp999
g20
(dp1000
g631
(dp1001
g633
F10.0
sg634
F42.0
sg635
F140.0
ssg639
(dp1002
g641
F5e-05
sg642
F132.4579341637009
sg643
F2.0
ssg30
(dp1003
g648
F54.4
sg649
F-104.0
sg650
F2.5
sssg43
(dp1004
g165
(dp1005
g662
F1.0
sg663
F1.0
sg664
F0.0
sg665
F0.002
sg666
F-2.1899738592999967
sg667
F4.2923494376e-05
sg668
F0.002
sg669
F1.0
sg670
F17.0
sg671
F155.67
ssg62
(dp1006
g676
F-79.8821836579
sg677
F2.068954962610324e-05
ssg186
(dp1007
g682
F5.85477866612e-05
ssg192
(dp1008
g687
F7.63692206734
sg692
F0.00365676240119
sg691
F0.26993550346
sg690
F3.13760461868e-05
sg688
F115.040811905
sg689
F37.2740194128
ssg52
(dp1009
g697
F-55.772342395
sg698
F0.306752147542
sg699
F0.0
sg700
F-78.3762490029
sg701
F32.7885075379
ssg212
(dp1010
g706
F8.43780573752e-05
ssg69
(dp1011
g711
F0.00501206206504
sg712
F0.0
sg713
F11.6427471384
ssg225
(dp1012
g718
F7.79902252875e-05
ssg45
(dp1013
g723
F0.146326621958
sg724
F0.0
ssg237
(dp1014
g729
F99.1146852282
sg730
F0.119408607923
sg731
F0.0
sg732
F0.00024
sg733
F0.0
sssg8
(lp1015
g629
asg84
(dp1016
g86
F1.5831889597
sg88
F2.49841939531
sg89
I1
sg90
F211.5
sg87
F114.969186163
sg91
(lp1017
(lp1018
I0
aF259.9123467666
aI0
aF1.5831889597
aa(lp1019
I0
aF471.4123467666
aI0
aF1.5831889597
aassg101
(dp1020
g103
F0.0
sg104
g460
sg106
F1.0
ssg110
F-92.8364820902
ssg788
(dp1021
g20
(dp1022
g795
(dp1023
g797
F10.0
sg798
F42.0
sg799
F140.0
ssg803
(dp1024
g805
F5e-05
sg806
F132.4579341637009
sg807
F2.0
ssg30
(dp1025
g812
F54.4
sg813
F-104.0
sg814
F2.5
sssg43
(dp1026
g165
(dp1027
g826
F1.0
sg827
F1.0
sg828
F0.0
sg829
F0.002
sg830
F-2.1899738592999967
sg831
F4.2923494376e-05
sg832
F0.002
sg833
F1.0
sg834
F17.0
sg835
F155.67
ssg62
(dp1028
g840
F-79.8821836579
sg841
F2.068954962610324e-05
ssg186
(dp1029
g846
F5.85477866612e-05
ssg192
(dp1030
g851
F7.63692206734
sg856
F0.00365676240119
sg855
F0.26993550346
sg854
F3.13760461868e-05
sg852
F115.040811905
sg853
F37.2740194128
ssg52
(dp1031
g861
F-55.772342395
sg862
F0.306752147542
sg863
F0.0
sg864
F-78.3762490029
sg865
F32.7885075379
ssg212
(dp1032
g870
F8.43780573752e-05
ssg69
(dp1033
g875
F0.00501206206504
sg876
F0.0
sg877
F11.6427471384
ssg225
(dp1034
g882
F7.79902252875e-05
ssg45
(dp1035
g887
F0.146326621958
sg888
F0.0
ssg237
(dp1036
g893
F99.1146852282
sg894
F0.119408607923
sg895
F0.0
sg896
F0.00024
sg897
F0.0
sssg8
(lp1037
g793
asg84
(dp1038
g86
F1.5831889597
sg88
F2.49841939531
sg89
I1
sg90
F211.5
sg87
F114.969186163
sg91
(lp1039
(lp1040
I0
aF471.4123467666
aI0
aF1.5831889597
aa(lp1041
I0
aF682.9123467666
aI0
aF1.5831889597
aassg101
(dp1042
g103
F0.0
sg104
g624
sg106
F1.0
ssg110
F-92.8364820902
ssg6
(dp1043
g20
(dp1044
g22
(dp1045
g24
F10.0
sg25
F42.0
sg26
F140.0
ssg30
(dp1046
g32
F54.4
sg33
F-104.0
sg34
F2.5
sssg43
(dp1047
g45
(dp1048
g47
F0.73163310979
sg48
F0.0
ssg52
(dp1049
g54
F-55.772342395
sg55
F1.5337607377099998
sg56
F0.0
sg57
F-78.3762490029
sg58
F32.7885075379
ssg62
(dp1050
g64
F-79.8821836579
sg65
F0.00032045160242059065
ssg69
(dp1051
g71
F0.025060310325199998
sg72
F0.0
sg73
F11.6427471384
sssg8
(lp1052
g19
asg84
(dp1053
g86
F1.40966286462
sg88
F1.87389705992
sg89
I1
sg90
F594.292937602
sg87
F114.969186163
sg91
(lp1054
(lp1055
I0
aI0
aI0
aF1.40966286462
aa(lp1056
I0
aF-594.292937602
aI0
aF1.40966286462
aassg101
(dp1057
g103
F0.0
sg104
g105
sg106
F0.0
ssg110
F-92.8364820902
ssg128
(dp1058
g20
(dp1059
g135
(dp1060
g137
F10.0
sg138
F42.0
sg139
F140.0
ssg143
(dp1061
g145
F5e-05
sg146
F132.4579341637009
sg147
F2.0
ssg30
(dp1062
g152
F54.4
sg153
F-104.0
sg154
F2.5
sssg43
(dp1063
g165
(dp1064
g167
F1.0
sg168
F1.0
sg169
F0.0
sg170
F0.002
sg171
F-2.1899738592999967
sg172
F4.2923494376e-05
sg173
F0.002
sg174
F1.0
sg175
F17.0
sg176
F155.67
ssg62
(dp1065
g181
F-79.8821836579
sg182
F8.5005383721367e-05
ssg186
(dp1066
g188
F5.85477866612e-05
ssg192
(dp1067
g194
F7.63692206734
sg199
F0.00365676240119
sg198
F0.26993550346
sg197
F3.13760461868e-05
sg195
F115.040811905
sg196
F37.2740194128
ssg52
(dp1068
g204
F-55.772342395
sg205
F0.306752147542
sg206
F0.0
sg207
F-78.3762490029
sg208
F32.7885075379
ssg212
(dp1069
g214
F8.43780573752e-05
ssg69
(dp1070
g219
F0.00501206206504
sg220
F0.0
sg221
F11.6427471384
ssg225
(dp1071
g227
F7.79902252875e-05
ssg45
(dp1072
g232
F0.146326621958
sg233
F0.0
ssg237
(dp1073
g239
F99.1146852282
sg240
F0.119408607923
sg241
F0.0
sg242
F0.00024
sg243
F0.0
sssg8
(lp1074
g133
asg84
(dp1075
g86
F2.2799248874
sg88
F2.46671987855
sg89
I1
sg90
F211.5
sg87
F114.969186163
sg91
(lp1076
(lp1077
I0
aI0
aI0
aF2.2799248874
aa(lp1078
F211.5
aI0
aI0
aF2.2799248874
aassg101
(dp1079
g103
F0.0
sg104
g105
sg106
F0.5
ssg110
F-92.8364820902
ssbsS'globals'
p1080
g0
(g1
g2
(dp1081
S'celsius'
p1082
F34.0
sS'v_init'
p1083
F-92.8364820902
sS'erev_ih'
p1084
F-37.0
stp1085
Rp1086
(dp1087
g1082
F34.0
sg1083
F-92.8364820902
sg1084
F-37.0
sbsS'secLists'
p1088
g0
(g1
g2
(dp1089
S'alldend'
p1090
(lp1091
g460
ag624
ag788
ag128
asS'apicdend'
p1092
(lp1093
g460
ag624
ag788
asS'spiny'
p1094
(lp1095
g460
ag624
ag788
ag128
asS'perisom'
p1096
(lp1097
g105
astp1098
Rp1099
(dp1100
g1090
(lp1101
g460
ag624
ag788
ag128
asg1092
(lp1102
g460
ag624
ag788
asg1094
(lp1103
g460
ag624
ag788
ag128
asg1096
(lp1104
g105
asbsS'conds'
p1105
g0
(g1
g2
(dp1106
S'cellModel'
p1107
S'HH_reduced'
p1108
sS'cellType'
p1109
S'IT'
p1110
sS'ynorm'
p1111
(lp1112
F0.42
aF0.52
astp1113
Rp1114
(dp1115
g1107
g1108
sg1109
g1110
sg1111
(lp1116
F0.42
aF0.52
asbstp1117
Rp1118
(dp1119
g4
(dp1120
g105
(dp1121
g20
(dp1122
g304
(dp1123
g306
F10.0
sg307
F42.0
sg308
F140.0
ssg312
(dp1124
g314
F5e-05
sg315
F132.4579341637009
sg316
F2.0
ssg30
(dp1125
g321
F54.4
sg322
F-104.0
sg323
F2.5
sssg43
(dp1126
g165
(dp1127
g335
F1.0
sg336
F1.0
sg337
F0.0
sg338
F0.002
sg339
F-2.1899738592999967
sg340
F4.2923494376e-05
sg341
F0.002
sg342
F1.0
sg343
F17.0
sg344
F155.67
ssg62
(dp1128
g349
F-79.8821836579
sg350
F3.913592118479913e-05
ssg186
(dp1129
g355
F5.85477866612e-05
ssg192
(dp1130
g360
F7.63692206734
sg365
F0.00365676240119
sg364
F0.26993550346
sg363
F3.13760461868e-05
sg361
F115.040811905
sg362
F37.2740194128
ssg52
(dp1131
g370
F-55.772342395
sg371
F0.306752147542
sg372
F0.0
sg373
F-78.3762490029
sg374
F32.7885075379
ssg212
(dp1132
g379
F8.43780573752e-05
ssg69
(dp1133
g384
F0.00501206206504
sg385
F0.0
sg386
F11.6427471384
ssg225
(dp1134
g391
F7.79902252875e-05
ssg45
(dp1135
g396
F0.146326621958
sg397
F0.0
ssg237
(dp1136
g402
F99.1146852282
sg403
F0.119408607923
sg404
F0.0
sg405
F0.00024
sg406
F0.0
sssg8
(lp1137
g302
asg84
(dp1138
g86
F28.2149102762
sg88
F1.89133252551
sg89
I1
sg90
F48.4123467666
sg87
F114.969186163
sg91
(lp1139
(lp1140
I0
aI0
aI0
aF28.2149102762
aa(lp1141
I0
aF48.4123467666
aI0
aF28.2149102762
aassg101
(dp1142
sg110
F-92.8364820902
ssg460
(dp1143
g20
(dp1144
g467
(dp1145
g469
F10.0
sg470
F42.0
sg471
F140.0
ssg475
(dp1146
g477
F5e-05
sg478
F132.4579341637009
sg479
F2.0
ssg30
(dp1147
g484
F54.4
sg485
F-104.0
sg486
F2.5
sssg43
(dp1148
g165
(dp1149
g498
F1.0
sg499
F1.0
sg500
F0.0
sg501
F0.002
sg502
F-2.1899738592999967
sg503
F4.2923494376e-05
sg504
F0.002
sg505
F1.0
sg506
F17.0
sg507
F155.67
ssg62
(dp1150
g512
F-79.8821836579
sg513
F2.068954962610324e-05
ssg186
(dp1151
g518
F5.85477866612e-05
ssg192
(dp1152
g523
F7.63692206734
sg528
F0.00365676240119
sg527
F0.26993550346
sg526
F3.13760461868e-05
sg524
F115.040811905
sg525
F37.2740194128
ssg52
(dp1153
g533
F-55.772342395
sg534
F0.306752147542
sg535
F0.0
sg536
F-78.3762490029
sg537
F32.7885075379
ssg212
(dp1154
g542
F8.43780573752e-05
ssg69
(dp1155
g547
F0.00501206206504
sg548
F0.0
sg549
F11.6427471384
ssg225
(dp1156
g554
F7.79902252875e-05
ssg45
(dp1157
g559
F0.146326621958
sg560
F0.0
ssg237
(dp1158
g565
F99.1146852282
sg566
F0.119408607923
sg567
F0.0
sg568
F0.00024
sg569
F0.0
sssg8
(lp1159
g465
asg84
(dp1160
g86
F1.5831889597
sg88
F2.49841939531
sg89
I1
sg90
F211.5
sg87
F114.969186163
sg91
(lp1161
(lp1162
I0
aF48.4123467666
aI0
aF1.5831889597
aa(lp1163
I0
aF259.9123467666
aI0
aF1.5831889597
aassg101
(dp1164
g103
F0.0
sg104
g105
sg106
F1.0
ssg110
F-92.8364820902
ssg624
(dp1165
g20
(dp1166
g631
(dp1167
g633
F10.0
sg634
F42.0
sg635
F140.0
ssg639
(dp1168
g641
F5e-05
sg642
F132.4579341637009
sg643
F2.0
ssg30
(dp1169
g648
F54.4
sg649
F-104.0
sg650
F2.5
sssg43
(dp1170
g165
(dp1171
g662
F1.0
sg663
F1.0
sg664
F0.0
sg665
F0.002
sg666
F-2.1899738592999967
sg667
F4.2923494376e-05
sg668
F0.002
sg669
F1.0
sg670
F17.0
sg671
F155.67
ssg62
(dp1172
g676
F-79.8821836579
sg677
F2.068954962610324e-05
ssg186
(dp1173
g682
F5.85477866612e-05
ssg192
(dp1174
g687
F7.63692206734
sg692
F0.00365676240119
sg691
F0.26993550346
sg690
F3.13760461868e-05
sg688
F115.040811905
sg689
F37.2740194128
ssg52
(dp1175
g697
F-55.772342395
sg698
F0.306752147542
sg699
F0.0
sg700
F-78.3762490029
sg701
F32.7885075379
ssg212
(dp1176
g706
F8.43780573752e-05
ssg69
(dp1177
g711
F0.00501206206504
sg712
F0.0
sg713
F11.6427471384
ssg225
(dp1178
g718
F7.79902252875e-05
ssg45
(dp1179
g723
F0.146326621958
sg724
F0.0
ssg237
(dp1180
g729
F99.1146852282
sg730
F0.119408607923
sg731
F0.0
sg732
F0.00024
sg733
F0.0
sssg8
(lp1181
g629
asg84
(dp1182
g86
F1.5831889597
sg88
F2.49841939531
sg89
I1
sg90
F211.5
sg87
F114.969186163
sg91
(lp1183
(lp1184
I0
aF259.9123467666
aI0
aF1.5831889597
aa(lp1185
I0
aF471.4123467666
aI0
aF1.5831889597
aassg101
(dp1186
g103
F0.0
sg104
g460
sg106
F1.0
ssg110
F-92.8364820902
ssg788
(dp1187
g20
(dp1188
g795
(dp1189
g797
F10.0
sg798
F42.0
sg799
F140.0
ssg803
(dp1190
g805
F5e-05
sg806
F132.4579341637009
sg807
F2.0
ssg30
(dp1191
g812
F54.4
sg813
F-104.0
sg814
F2.5
sssg43
(dp1192
g165
(dp1193
g826
F1.0
sg827
F1.0
sg828
F0.0
sg829
F0.002
sg830
F-2.1899738592999967
sg831
F4.2923494376e-05
sg832
F0.002
sg833
F1.0
sg834
F17.0
sg835
F155.67
ssg62
(dp1194
g840
F-79.8821836579
sg841
F2.068954962610324e-05
ssg186
(dp1195
g846
F5.85477866612e-05
ssg192
(dp1196
g851
F7.63692206734
sg856
F0.00365676240119
sg855
F0.26993550346
sg854
F3.13760461868e-05
sg852
F115.040811905
sg853
F37.2740194128
ssg52
(dp1197
g861
F-55.772342395
sg862
F0.306752147542
sg863
F0.0
sg864
F-78.3762490029
sg865
F32.7885075379
ssg212
(dp1198
g870
F8.43780573752e-05
ssg69
(dp1199
g875
F0.00501206206504
sg876
F0.0
sg877
F11.6427471384
ssg225
(dp1200
g882
F7.79902252875e-05
ssg45
(dp1201
g887
F0.146326621958
sg888
F0.0
ssg237
(dp1202
g893
F99.1146852282
sg894
F0.119408607923
sg895
F0.0
sg896
F0.00024
sg897
F0.0
sssg8
(lp1203
g793
asg84
(dp1204
g86
F1.5831889597
sg88
F2.49841939531
sg89
I1
sg90
F211.5
sg87
F114.969186163
sg91
(lp1205
(lp1206
I0
aF471.4123467666
aI0
aF1.5831889597
aa(lp1207
I0
aF682.9123467666
aI0
aF1.5831889597
aassg101
(dp1208
g103
F0.0
sg104
g624
sg106
F1.0
ssg110
F-92.8364820902
ssg6
(dp1209
g20
(dp1210
g22
(dp1211
g24
F10.0
sg25
F42.0
sg26
F140.0
ssg30
(dp1212
g32
F54.4
sg33
F-104.0
sg34
F2.5
sssg43
(dp1213
g45
(dp1214
g47
F0.73163310979
sg48
F0.0
ssg52
(dp1215
g54
F-55.772342395
sg55
F1.5337607377099998
sg56
F0.0
sg57
F-78.3762490029
sg58
F32.7885075379
ssg62
(dp1216
g64
F-79.8821836579
sg65
F0.00032045160242059065
ssg69
(dp1217
g71
F0.025060310325199998
sg72
F0.0
sg73
F11.6427471384
sssg8
(lp1218
g19
asg84
(dp1219
g86
F1.40966286462
sg88
F1.87389705992
sg89
I1
sg90
F594.292937602
sg87
F114.969186163
sg91
(lp1220
(lp1221
I0
aI0
aI0
aF1.40966286462
aa(lp1222
I0
aF-594.292937602
aI0
aF1.40966286462
aassg101
(dp1223
g103
F0.0
sg104
g105
sg106
F0.0
ssg110
F-92.8364820902
ssg128
(dp1224
g20
(dp1225
g135
(dp1226
g137
F10.0
sg138
F42.0
sg139
F140.0
ssg143
(dp1227
g145
F5e-05
sg146
F132.4579341637009
sg147
F2.0
ssg30
(dp1228
g152
F54.4
sg153
F-104.0
sg154
F2.5
sssg43
(dp1229
g165
(dp1230
g167
F1.0
sg168
F1.0
sg169
F0.0
sg170
F0.002
sg171
F-2.1899738592999967
sg172
F4.2923494376e-05
sg173
F0.002
sg174
F1.0
sg175
F17.0
sg176
F155.67
ssg62
(dp1231
g181
F-79.8821836579
sg182
F8.5005383721367e-05
ssg186
(dp1232
g188
F5.85477866612e-05
ssg192
(dp1233
g194
F7.63692206734
sg199
F0.00365676240119
sg198
F0.26993550346
sg197
F3.13760461868e-05
sg195
F115.040811905
sg196
F37.2740194128
ssg52
(dp1234
g204
F-55.772342395
sg205
F0.306752147542
sg206
F0.0
sg207
F-78.3762490029
sg208
F32.7885075379
ssg212
(dp1235
g214
F8.43780573752e-05
ssg69
(dp1236
g219
F0.00501206206504
sg220
F0.0
sg221
F11.6427471384
ssg225
(dp1237
g227
F7.79902252875e-05
ssg45
(dp1238
g232
F0.146326621958
sg233
F0.0
ssg237
(dp1239
g239
F99.1146852282
sg240
F0.119408607923
sg241
F0.0
sg242
F0.00024
sg243
F0.0
sssg8
(lp1240
g133
asg84
(dp1241
g86
F2.2799248874
sg88
F2.46671987855
sg89
I1
sg90
F211.5
sg87
F114.969186163
sg91
(lp1242
(lp1243
I0
aI0
aI0
aF2.2799248874
aa(lp1244
F211.5
aI0
aI0
aF2.2799248874
aassg101
(dp1245
g103
F0.0
sg104
g105
sg106
F0.5
ssg110
F-92.8364820902
sssg1080
(dp1246
g1082
F34.0
sg1083
F-92.8364820902
sg1084
F-37.0
ssg1088
(dp1247
g1090
(lp1248
g460
ag624
ag788
ag128
asg1092
(lp1249
g460
ag624
ag788
asg1094
(lp1250
g460
ag624
ag788
ag128
asg1096
(lp1251
g105
assg1105
(dp1252
g1107
g1108
sg1109
g1110
sg1111
(lp1253
F0.42
aF0.52
assb.