ccopy_reg
_reconstructor
p0
(cnetpyne.specs
Dict
p1
c__builtin__
dict
p2
(dp3
S'secs'
p4
g0
(g1
g2
(dp5
S'axon'
p6
g0
(g1
g2
(dp7
S'ions'
p8
g0
(g1
g2
(dp9
S'na'
p10
g0
(g1
g2
(dp11
S'i'
p12
F10.0
sS'e'
p13
F42.0
sS'o'
p14
F140.0
stp15
Rp16
(dp17
g12
F10.0
sg13
F42.0
sg14
F140.0
sbsS'k'
p18
g0
(g1
g2
(dp19
S'i'
p20
F54.4
sS'e'
p21
F-104.0
sS'o'
p22
F2.5
stp23
Rp24
(dp25
g20
F54.4
sg21
F-104.0
sg22
F2.5
sbstp26
Rp27
(dp28
g10
(dp29
g12
F10.0
sg13
F42.0
sg14
F140.0
ssg18
(dp30
g20
F54.4
sg21
F-104.0
sg22
F2.5
ssbsS'mechs'
p31
g0
(g1
g2
(dp32
S'nax'
p33
g0
(g1
g2
(dp34
S'gbar'
p35
F0.73163310979
sS'sh'
p36
F0.0
stp37
Rp38
(dp39
g35
F0.73163310979
sg36
F0.0
sbsS'kap'
p40
g0
(g1
g2
(dp41
S'tq'
p42
F-55.772342395
sS'gbar'
p43
F1.5337607377099998
sS'sh'
p44
F0.0
sS'vhalfl'
p45
F-78.3762490029
sS'vhalfn'
p46
F32.7885075379
stp47
Rp48
(dp49
g42
F-55.772342395
sg43
F1.5337607377099998
sg44
F0.0
sg45
F-78.3762490029
sg46
F32.7885075379
sbsS'pas'
p50
g0
(g1
g2
(dp51
S'e'
p52
F-79.8821836579
sS'g'
p53
F0.00032045160242059065
stp54
Rp55
(dp56
g52
F-79.8821836579
sg53
F0.00032045160242059065
sbsS'kdr'
p57
g0
(g1
g2
(dp58
S'gbar'
p59
F0.025060310325199998
sS'sh'
p60
F0.0
sS'vhalfn'
p61
F11.6427471384
stp62
Rp63
(dp64
g59
F0.025060310325199998
sg60
F0.0
sg61
F11.6427471384
sbstp65
Rp66
(dp67
g33
(dp68
g35
F0.73163310979
sg36
F0.0
ssg40
(dp69
g42
F-55.772342395
sg43
F1.5337607377099998
sg44
F0.0
sg45
F-78.3762490029
sg46
F32.7885075379
ssg50
(dp70
g52
F-79.8821836579
sg53
F0.00032045160242059065
ssg57
(dp71
g59
F0.025060310325199998
sg60
F0.0
sg61
F11.6427471384
ssbsS'geom'
p72
g0
(g1
g2
(dp73
S'diam'
p74
F1.40966286462
sS'Ra'
p75
F114.969186163
sS'cm'
p76
F1.87389705992
sS'nseg'
p77
I1
sS'L'
p78
F594.292937602
sS'pt3d'
p79
(lp80
(lp81
I0
aI0
aI0
aF1.40966286462
aa(lp82
I0
aF-594.292937602
aI0
aF1.40966286462
aastp83
Rp84
(dp85
g74
F1.40966286462
sg76
F1.87389705992
sg77
I1
sg78
F594.292937602
sg75
F114.969186163
sg79
(lp86
(lp87
I0
aI0
aI0
aF1.40966286462
aa(lp88
I0
aF-594.292937602
aI0
aF1.40966286462
aasbsS'topol'
p89
g0
(g1
g2
(dp90
S'childX'
p91
F0.0
sS'parentSec'
p92
S'soma'
p93
sS'parentX'
p94
F0.0
stp95
Rp96
(dp97
g91
F0.0
sg92
g93
sg94
F0.0
sbsS'vinit'
p98
F-92.8364820902
stp99
Rp100
(dp101
g8
(dp102
g10
(dp103
g12
F10.0
sg13
F42.0
sg14
F140.0
ssg18
(dp104
g20
F54.4
sg21
F-104.0
sg22
F2.5
sssg31
(dp105
g33
(dp106
g35
F0.73163310979
sg36
F0.0
ssg40
(dp107
g42
F-55.772342395
sg43
F1.5337607377099998
sg44
F0.0
sg45
F-78.3762490029
sg46
F32.7885075379
ssg50
(dp108
g52
F-79.8821836579
sg53
F0.00032045160242059065
ssg57
(dp109
g59
F0.025060310325199998
sg60
F0.0
sg61
F11.6427471384
sssg72
(dp110
g74
F1.40966286462
sg76
F1.87389705992
sg77
I1
sg78
F594.292937602
sg75
F114.969186163
sg79
(lp111
(lp112
I0
aI0
aI0
aF1.40966286462
aa(lp113
I0
aF-594.292937602
aI0
aF1.40966286462
aassg89
(dp114
g91
F0.0
sg92
g93
sg94
F0.0
ssg98
F-92.8364820902
sbsS'Bdend'
p115
g0
(g1
g2
(dp116
S'weightNorm'
p117
(lp118
cnumpy.core.multiarray
scalar
p119
(cnumpy
dtype
p120
(S'f8'
p121
I0
I1
tp122
Rp123
(I3
S'<'
p124
NNNI-1
I-1
I0
tp125
bS'p\xac\xe4Ma\x1aV?'
p126
tp127
Rp128
asg8
g0
(g1
g2
(dp129
S'na'
p130
g0
(g1
g2
(dp131
S'i'
p132
F10.0
sS'e'
p133
F42.0
sS'o'
p134
F140.0
stp135
Rp136
(dp137
g132
F10.0
sg133
F42.0
sg134
F140.0
sbsS'ca'
p138
g0
(g1
g2
(dp139
S'i'
p140
F5e-05
sS'e'
p141
F132.4579341637009
sS'o'
p142
F2.0
stp143
Rp144
(dp145
g140
F5e-05
sg141
F132.4579341637009
sg142
F2.0
sbsg18
g0
(g1
g2
(dp146
S'i'
p147
F54.4
sS'e'
p148
F-104.0
sS'o'
p149
F2.5
stp150
Rp151
(dp152
g147
F54.4
sg148
F-104.0
sg149
F2.5
sbstp153
Rp154
(dp155
g130
(dp156
g132
F10.0
sg133
F42.0
sg134
F140.0
ssg138
(dp157
g140
F5e-05
sg141
F132.4579341637009
sg142
F2.0
ssg18
(dp158
g147
F54.4
sg148
F-104.0
sg149
F2.5
ssbsg31
g0
(g1
g2
(dp159
S'kBK'
p160
g0
(g1
g2
(dp161
S'tau'
p162
F1.0
sS'caPmax'
p163
F1.0
sS'caPmin'
p164
F0.0
sS'caVhh'
p165
F0.002
sS'caVhmin'
p166
F-2.1899738592999967
sS'gpeak'
p167
F4.2923494376e-05
sS'caPh'
p168
F0.002
sS'caPk'
p169
F1.0
sS'k'
p170
F17.0
sS'caVhmax'
p171
F155.67
stp172
Rp173
(dp174
g162
F1.0
sg163
F1.0
sg164
F0.0
sg165
F0.002
sg166
F-2.1899738592999967
sg167
F4.2923494376e-05
sg168
F0.002
sg169
F1.0
sg170
F17.0
sg171
F155.67
sbsg50
g0
(g1
g2
(dp175
S'e'
p176
F-79.8821836579
sS'g'
p177
F8.5005383721367e-05
stp178
Rp179
(dp180
g176
F-79.8821836579
sg177
F8.5005383721367e-05
sbsS'cat'
p181
g0
(g1
g2
(dp182
S'gcatbar'
p183
F5.85477866612e-05
stp184
Rp185
(dp186
g183
F5.85477866612e-05
sbsS'ih'
p187
g0
(g1
g2
(dp188
S'aslope'
p189
F7.63692206734
sS'ashift'
p190
F115.040811905
sS'bslope'
p191
F37.2740194128
sS'gbar'
p192
F3.13760461868e-05
sS'bscale'
p193
F0.26993550346
sS'ascale'
p194
F0.00365676240119
stp195
Rp196
(dp197
g189
F7.63692206734
sg194
F0.00365676240119
sg193
F0.26993550346
sg192
F3.13760461868e-05
sg190
F115.040811905
sg191
F37.2740194128
sbsg40
g0
(g1
g2
(dp198
S'tq'
p199
F-55.772342395
sS'gbar'
p200
F0.306752147542
sS'sh'
p201
F0.0
sS'vhalfl'
p202
F-78.3762490029
sS'vhalfn'
p203
F32.7885075379
stp204
Rp205
(dp206
g199
F-55.772342395
sg200
F0.306752147542
sg201
F0.0
sg202
F-78.3762490029
sg203
F32.7885075379
sbsS'can'
p207
g0
(g1
g2
(dp208
S'gcanbar'
p209
F8.43780573752e-05
stp210
Rp211
(dp212
g209
F8.43780573752e-05
sbsg57
g0
(g1
g2
(dp213
S'gbar'
p214
F0.00501206206504
sS'sh'
p215
F0.0
sS'vhalfn'
p216
F11.6427471384
stp217
Rp218
(dp219
g214
F0.00501206206504
sg215
F0.0
sg216
F11.6427471384
sbsS'cal'
p220
g0
(g1
g2
(dp221
S'gcalbar'
p222
F7.79902252875e-05
stp223
Rp224
(dp225
g222
F7.79902252875e-05
sbsg33
g0
(g1
g2
(dp226
S'gbar'
p227
F0.146326621958
sS'sh'
p228
F0.0
stp229
Rp230
(dp231
g227
F0.146326621958
sg228
F0.0
sbsS'cadad'
p232
g0
(g1
g2
(dp233
S'taur'
p234
F99.1146852282
sS'depth'
p235
F0.119408607923
sS'kd'
p236
F0.0
sS'cainf'
p237
F0.00024
sS'kt'
p238
F0.0
stp239
Rp240
(dp241
g234
F99.1146852282
sg235
F0.119408607923
sg236
F0.0
sg237
F0.00024
sg238
F0.0
sbstp242
Rp243
(dp244
g160
(dp245
g162
F1.0
sg163
F1.0
sg164
F0.0
sg165
F0.002
sg166
F-2.1899738592999967
sg167
F4.2923494376e-05
sg168
F0.002
sg169
F1.0
sg170
F17.0
sg171
F155.67
ssg50
(dp246
g176
F-79.8821836579
sg177
F8.5005383721367e-05
ssg181
(dp247
g183
F5.85477866612e-05
ssg187
(dp248
g189
F7.63692206734
sg194
F0.00365676240119
sg193
F0.26993550346
sg192
F3.13760461868e-05
sg190
F115.040811905
sg191
F37.2740194128
ssg40
(dp249
g199
F-55.772342395
sg200
F0.306752147542
sg201
F0.0
sg202
F-78.3762490029
sg203
F32.7885075379
ssg207
(dp250
g209
F8.43780573752e-05
ssg57
(dp251
g214
F0.00501206206504
sg215
F0.0
sg216
F11.6427471384
ssg220
(dp252
g222
F7.79902252875e-05
ssg33
(dp253
g227
F0.146326621958
sg228
F0.0
ssg232
(dp254
g234
F99.1146852282
sg235
F0.119408607923
sg236
F0.0
sg237
F0.00024
sg238
F0.0
ssbsg72
g0
(g1
g2
(dp255
g74
F2.2799248874
sg75
F114.969186163
sg76
F2.46671987855
sg77
I1
sg78
F290.25
sg79
(lp256
(lp257
I0
aI0
aI0
aF2.2799248874
aa(lp258
F290.25
aI0
aI0
aF2.2799248874
aastp259
Rp260
(dp261
g74
F2.2799248874
sg76
F2.46671987855
sg77
I1
sg78
F290.25
sg75
F114.969186163
sg79
(lp262
(lp263
I0
aI0
aI0
aF2.2799248874
aa(lp264
F290.25
aI0
aI0
aF2.2799248874
aasbsg89
g0
(g1
g2
(dp265
g91
F0.0
sg92
g93
sg94
F0.5
stp266
Rp267
(dp268
g91
F0.0
sg92
g93
sg94
F0.5
sbsg98
F-92.8364820902
stp269
Rp270
(dp271
g8
(dp272
g130
(dp273
g132
F10.0
sg133
F42.0
sg134
F140.0
ssg138
(dp274
g140
F5e-05
sg141
F132.4579341637009
sg142
F2.0
ssg18
(dp275
g147
F54.4
sg148
F-104.0
sg149
F2.5
sssg31
(dp276
g160
(dp277
g162
F1.0
sg163
F1.0
sg164
F0.0
sg165
F0.002
sg166
F-2.1899738592999967
sg167
F4.2923494376e-05
sg168
F0.002
sg169
F1.0
sg170
F17.0
sg171
F155.67
ssg50
(dp278
g176
F-79.8821836579
sg177
F8.5005383721367e-05
ssg181
(dp279
g183
F5.85477866612e-05
ssg187
(dp280
g189
F7.63692206734
sg194
F0.00365676240119
sg193
F0.26993550346
sg192
F3.13760461868e-05
sg190
F115.040811905
sg191
F37.2740194128
ssg40
(dp281
g199
F-55.772342395
sg200
F0.306752147542
sg201
F0.0
sg202
F-78.3762490029
sg203
F32.7885075379
ssg207
(dp282
g209
F8.43780573752e-05
ssg57
(dp283
g214
F0.00501206206504
sg215
F0.0
sg216
F11.6427471384
ssg220
(dp284
g222
F7.79902252875e-05
ssg33
(dp285
g227
F0.146326621958
sg228
F0.0
ssg232
(dp286
g234
F99.1146852282
sg235
F0.119408607923
sg236
F0.0
sg237
F0.00024
sg238
F0.0
sssg117
(lp287
g128
asg72
(dp288
g74
F2.2799248874
sg76
F2.46671987855
sg77
I1
sg78
F290.25
sg75
F114.969186163
sg79
(lp289
(lp290
I0
aI0
aI0
aF2.2799248874
aa(lp291
F290.25
aI0
aI0
aF2.2799248874
aassg89
(dp292
g91
F0.0
sg92
g93
sg94
F0.5
ssg98
F-92.8364820902
sbsg93
g0
(g1
g2
(dp293
g117
(lp294
g119
(g123
S'B\rBi\x18\xb1S?'
p295
tp296
Rp297
asg8
g0
(g1
g2
(dp298
S'na'
p299
g0
(g1
g2
(dp300
S'i'
p301
F10.0
sS'e'
p302
F42.0
sS'o'
p303
F140.0
stp304
Rp305
(dp306
g301
F10.0
sg302
F42.0
sg303
F140.0
sbsS'ca'
p307
g0
(g1
g2
(dp308
S'i'
p309
F5e-05
sS'e'
p310
F132.4579341637009
sS'o'
p311
F2.0
stp312
Rp313
(dp314
g309
F5e-05
sg310
F132.4579341637009
sg311
F2.0
sbsg18
g0
(g1
g2
(dp315
S'i'
p316
F54.4
sS'e'
p317
F-104.0
sS'o'
p318
F2.5
stp319
Rp320
(dp321
g316
F54.4
sg317
F-104.0
sg318
F2.5
sbstp322
Rp323
(dp324
g299
(dp325
g301
F10.0
sg302
F42.0
sg303
F140.0
ssg307
(dp326
g309
F5e-05
sg310
F132.4579341637009
sg311
F2.0
ssg18
(dp327
g316
F54.4
sg317
F-104.0
sg318
F2.5
ssbsg31
g0
(g1
g2
(dp328
g160
g0
(g1
g2
(dp329
S'tau'
p330
F1.0
sS'caPmax'
p331
F1.0
sS'caPmin'
p332
F0.0
sS'caVhh'
p333
F0.002
sS'caVhmin'
p334
F-2.1899738592999967
sS'gpeak'
p335
F4.2923494376e-05
sS'caPh'
p336
F0.002
sS'caPk'
p337
F1.0
sS'k'
p338
F17.0
sS'caVhmax'
p339
F155.67
stp340
Rp341
(dp342
g330
F1.0
sg331
F1.0
sg332
F0.0
sg333
F0.002
sg334
F-2.1899738592999967
sg335
F4.2923494376e-05
sg336
F0.002
sg337
F1.0
sg338
F17.0
sg339
F155.67
sbsg50
g0
(g1
g2
(dp343
S'e'
p344
F-79.8821836579
sS'g'
p345
F3.913592118479913e-05
stp346
Rp347
(dp348
g344
F-79.8821836579
sg345
F3.913592118479913e-05
sbsg181
g0
(g1
g2
(dp349
S'gcatbar'
p350
F5.85477866612e-05
stp351
Rp352
(dp353
g350
F5.85477866612e-05
sbsg187
g0
(g1
g2
(dp354
S'aslope'
p355
F7.63692206734
sS'ashift'
p356
F115.040811905
sS'bslope'
p357
F37.2740194128
sS'gbar'
p358
F3.13760461868e-05
sS'bscale'
p359
F0.26993550346
sS'ascale'
p360
F0.00365676240119
stp361
Rp362
(dp363
g355
F7.63692206734
sg360
F0.00365676240119
sg359
F0.26993550346
sg358
F3.13760461868e-05
sg356
F115.040811905
sg357
F37.2740194128
sbsg40
g0
(g1
g2
(dp364
S'tq'
p365
F-55.772342395
sS'gbar'
p366
F0.306752147542
sS'sh'
p367
F0.0
sS'vhalfl'
p368
F-78.3762490029
sS'vhalfn'
p369
F32.7885075379
stp370
Rp371
(dp372
g365
F-55.772342395
sg366
F0.306752147542
sg367
F0.0
sg368
F-78.3762490029
sg369
F32.7885075379
sbsg207
g0
(g1
g2
(dp373
S'gcanbar'
p374
F8.43780573752e-05
stp375
Rp376
(dp377
g374
F8.43780573752e-05
sbsg57
g0
(g1
g2
(dp378
S'gbar'
p379
F0.00501206206504
sS'sh'
p380
F0.0
sS'vhalfn'
p381
F11.6427471384
stp382
Rp383
(dp384
g379
F0.00501206206504
sg380
F0.0
sg381
F11.6427471384
sbsg220
g0
(g1
g2
(dp385
S'gcalbar'
p386
F7.79902252875e-05
stp387
Rp388
(dp389
g386
F7.79902252875e-05
sbsg33
g0
(g1
g2
(dp390
S'gbar'
p391
F0.146326621958
sS'sh'
p392
F0.0
stp393
Rp394
(dp395
g391
F0.146326621958
sg392
F0.0
sbsg232
g0
(g1
g2
(dp396
S'taur'
p397
F99.1146852282
sS'depth'
p398
F0.119408607923
sS'kd'
p399
F0.0
sS'cainf'
p400
F0.00024
sS'kt'
p401
F0.0
stp402
Rp403
(dp404
g397
F99.1146852282
sg398
F0.119408607923
sg399
F0.0
sg400
F0.00024
sg401
F0.0
sbstp405
Rp406
(dp407
g160
(dp408
g330
F1.0
sg331
F1.0
sg332
F0.0
sg333
F0.002
sg334
F-2.1899738592999967
sg335
F4.2923494376e-05
sg336
F0.002
sg337
F1.0
sg338
F17.0
sg339
F155.67
ssg50
(dp409
g344
F-79.8821836579
sg345
F3.913592118479913e-05
ssg181
(dp410
g350
F5.85477866612e-05
ssg187
(dp411
g355
F7.63692206734
sg360
F0.00365676240119
sg359
F0.26993550346
sg358
F3.13760461868e-05
sg356
F115.040811905
sg357
F37.2740194128
ssg40
(dp412
g365
F-55.772342395
sg366
F0.306752147542
sg367
F0.0
sg368
F-78.3762490029
sg369
F32.7885075379
ssg207
(dp413
g374
F8.43780573752e-05
ssg57
(dp414
g379
F0.00501206206504
sg380
F0.0
sg381
F11.6427471384
ssg220
(dp415
g386
F7.79902252875e-05
ssg33
(dp416
g391
F0.146326621958
sg392
F0.0
ssg232
(dp417
g397
F99.1146852282
sg398
F0.119408607923
sg399
F0.0
sg400
F0.00024
sg401
F0.0
ssbsg72
g0
(g1
g2
(dp418
g74
F28.2149102762
sg75
F114.969186163
sg76
F1.89133252551
sg77
I1
sg78
F48.4123467666
sg79
(lp419
(lp420
I0
aI0
aI0
aF28.2149102762
aa(lp421
I0
aF48.4123467666
aI0
aF28.2149102762
aastp422
Rp423
(dp424
g74
F28.2149102762
sg76
F1.89133252551
sg77
I1
sg78
F48.4123467666
sg75
F114.969186163
sg79
(lp425
(lp426
I0
aI0
aI0
aF28.2149102762
aa(lp427
I0
aF48.4123467666
aI0
aF28.2149102762
aasbsg89
g0
(g1
g2
(dp428
tp429
Rp430
sg98
F-92.8364820902
stp431
Rp432
(dp433
g8
(dp434
g299
(dp435
g301
F10.0
sg302
F42.0
sg303
F140.0
ssg307
(dp436
g309
F5e-05
sg310
F132.4579341637009
sg311
F2.0
ssg18
(dp437
g316
F54.4
sg317
F-104.0
sg318
F2.5
sssg31
(dp438
g160
(dp439
g330
F1.0
sg331
F1.0
sg332
F0.0
sg333
F0.002
sg334
F-2.1899738592999967
sg335
F4.2923494376e-05
sg336
F0.002
sg337
F1.0
sg338
F17.0
sg339
F155.67
ssg50
(dp440
g344
F-79.8821836579
sg345
F3.913592118479913e-05
ssg181
(dp441
g350
F5.85477866612e-05
ssg187
(dp442
g355
F7.63692206734
sg360
F0.00365676240119
sg359
F0.26993550346
sg358
F3.13760461868e-05
sg356
F115.040811905
sg357
F37.2740194128
ssg40
(dp443
g365
F-55.772342395
sg366
F0.306752147542
sg367
F0.0
sg368
F-78.3762490029
sg369
F32.7885075379
ssg207
(dp444
g374
F8.43780573752e-05
ssg57
(dp445
g379
F0.00501206206504
sg380
F0.0
sg381
F11.6427471384
ssg220
(dp446
g386
F7.79902252875e-05
ssg33
(dp447
g391
F0.146326621958
sg392
F0.0
ssg232
(dp448
g397
F99.1146852282
sg398
F0.119408607923
sg399
F0.0
sg400
F0.00024
sg401
F0.0
sssg117
(lp449
g297
asg72
(dp450
g74
F28.2149102762
sg76
F1.89133252551
sg77
I1
sg78
F48.4123467666
sg75
F114.969186163
sg79
(lp451
(lp452
I0
aI0
aI0
aF28.2149102762
aa(lp453
I0
aF48.4123467666
aI0
aF28.2149102762
aassg89
(dp454
sg98
F-92.8364820902
sbsS'Adend1'
p455
g0
(g1
g2
(dp456
g117
(lp457
g119
(g123
S'+3\xcb\x92\xa5\x86[?'
p458
tp459
Rp460
asg8
g0
(g1
g2
(dp461
S'na'
p462
g0
(g1
g2
(dp463
S'i'
p464
F10.0
sS'e'
p465
F42.0
sS'o'
p466
F140.0
stp467
Rp468
(dp469
g464
F10.0
sg465
F42.0
sg466
F140.0
sbsS'ca'
p470
g0
(g1
g2
(dp471
S'i'
p472
F5e-05
sS'e'
p473
F132.4579341637009
sS'o'
p474
F2.0
stp475
Rp476
(dp477
g472
F5e-05
sg473
F132.4579341637009
sg474
F2.0
sbsg18
g0
(g1
g2
(dp478
S'i'
p479
F54.4
sS'e'
p480
F-104.0
sS'o'
p481
F2.5
stp482
Rp483
(dp484
g479
F54.4
sg480
F-104.0
sg481
F2.5
sbstp485
Rp486
(dp487
g462
(dp488
g464
F10.0
sg465
F42.0
sg466
F140.0
ssg470
(dp489
g472
F5e-05
sg473
F132.4579341637009
sg474
F2.0
ssg18
(dp490
g479
F54.4
sg480
F-104.0
sg481
F2.5
ssbsg31
g0
(g1
g2
(dp491
g160
g0
(g1
g2
(dp492
S'tau'
p493
F1.0
sS'caPmax'
p494
F1.0
sS'caPmin'
p495
F0.0
sS'caVhh'
p496
F0.002
sS'caVhmin'
p497
F-2.1899738592999967
sS'gpeak'
p498
F4.2923494376e-05
sS'caPh'
p499
F0.002
sS'caPk'
p500
F1.0
sS'k'
p501
F17.0
sS'caVhmax'
p502
F155.67
stp503
Rp504
(dp505
g493
F1.0
sg494
F1.0
sg495
F0.0
sg496
F0.002
sg497
F-2.1899738592999967
sg498
F4.2923494376e-05
sg499
F0.002
sg500
F1.0
sg501
F17.0
sg502
F155.67
sbsg50
g0
(g1
g2
(dp506
S'e'
p507
F-79.8821836579
sS'g'
p508
F2.068954962610324e-05
stp509
Rp510
(dp511
g507
F-79.8821836579
sg508
F2.068954962610324e-05
sbsg181
g0
(g1
g2
(dp512
S'gcatbar'
p513
F5.85477866612e-05
stp514
Rp515
(dp516
g513
F5.85477866612e-05
sbsg187
g0
(g1
g2
(dp517
S'aslope'
p518
F7.63692206734
sS'ashift'
p519
F115.040811905
sS'bslope'
p520
F37.2740194128
sS'gbar'
p521
F3.13760461868e-05
sS'bscale'
p522
F0.26993550346
sS'ascale'
p523
F0.00365676240119
stp524
Rp525
(dp526
g518
F7.63692206734
sg523
F0.00365676240119
sg522
F0.26993550346
sg521
F3.13760461868e-05
sg519
F115.040811905
sg520
F37.2740194128
sbsg40
g0
(g1
g2
(dp527
S'tq'
p528
F-55.772342395
sS'gbar'
p529
F0.306752147542
sS'sh'
p530
F0.0
sS'vhalfl'
p531
F-78.3762490029
sS'vhalfn'
p532
F32.7885075379
stp533
Rp534
(dp535
g528
F-55.772342395
sg529
F0.306752147542
sg530
F0.0
sg531
F-78.3762490029
sg532
F32.7885075379
sbsg207
g0
(g1
g2
(dp536
S'gcanbar'
p537
F8.43780573752e-05
stp538
Rp539
(dp540
g537
F8.43780573752e-05
sbsg57
g0
(g1
g2
(dp541
S'gbar'
p542
F0.00501206206504
sS'sh'
p543
F0.0
sS'vhalfn'
p544
F11.6427471384
stp545
Rp546
(dp547
g542
F0.00501206206504
sg543
F0.0
sg544
F11.6427471384
sbsg220
g0
(g1
g2
(dp548
S'gcalbar'
p549
F7.79902252875e-05
stp550
Rp551
(dp552
g549
F7.79902252875e-05
sbsg33
g0
(g1
g2
(dp553
S'gbar'
p554
F0.146326621958
sS'sh'
p555
F0.0
stp556
Rp557
(dp558
g554
F0.146326621958
sg555
F0.0
sbsg232
g0
(g1
g2
(dp559
S'taur'
p560
F99.1146852282
sS'depth'
p561
F0.119408607923
sS'kd'
p562
F0.0
sS'cainf'
p563
F0.00024
sS'kt'
p564
F0.0
stp565
Rp566
(dp567
g560
F99.1146852282
sg561
F0.119408607923
sg562
F0.0
sg563
F0.00024
sg564
F0.0
sbstp568
Rp569
(dp570
g160
(dp571
g493
F1.0
sg494
F1.0
sg495
F0.0
sg496
F0.002
sg497
F-2.1899738592999967
sg498
F4.2923494376e-05
sg499
F0.002
sg500
F1.0
sg501
F17.0
sg502
F155.67
ssg50
(dp572
g507
F-79.8821836579
sg508
F2.068954962610324e-05
ssg181
(dp573
g513
F5.85477866612e-05
ssg187
(dp574
g518
F7.63692206734
sg523
F0.00365676240119
sg522
F0.26993550346
sg521
F3.13760461868e-05
sg519
F115.040811905
sg520
F37.2740194128
ssg40
(dp575
g528
F-55.772342395
sg529
F0.306752147542
sg530
F0.0
sg531
F-78.3762490029
sg532
F32.7885075379
ssg207
(dp576
g537
F8.43780573752e-05
ssg57
(dp577
g542
F0.00501206206504
sg543
F0.0
sg544
F11.6427471384
ssg220
(dp578
g549
F7.79902252875e-05
ssg33
(dp579
g554
F0.146326621958
sg555
F0.0
ssg232
(dp580
g560
F99.1146852282
sg561
F0.119408607923
sg562
F0.0
sg563
F0.00024
sg564
F0.0
ssbsg72
g0
(g1
g2
(dp581
g74
F1.5831889597
sg75
F114.969186163
sg76
F2.49841939531
sg77
I1
sg78
F290.25
sg79
(lp582
(lp583
I0
aF48.4123467666
aI0
aF1.5831889597
aa(lp584
I0
aF338.6623467666
aI0
aF1.5831889597
aastp585
Rp586
(dp587
g74
F1.5831889597
sg76
F2.49841939531
sg77
I1
sg78
F290.25
sg75
F114.969186163
sg79
(lp588
(lp589
I0
aF48.4123467666
aI0
aF1.5831889597
aa(lp590
I0
aF338.6623467666
aI0
aF1.5831889597
aasbsg89
g0
(g1
g2
(dp591
g91
F0.0
sg92
g93
sg94
F1.0
stp592
Rp593
(dp594
g91
F0.0
sg92
g93
sg94
F1.0
sbsg98
F-92.8364820902
stp595
Rp596
(dp597
g8
(dp598
g462
(dp599
g464
F10.0
sg465
F42.0
sg466
F140.0
ssg470
(dp600
g472
F5e-05
sg473
F132.4579341637009
sg474
F2.0
ssg18
(dp601
g479
F54.4
sg480
F-104.0
sg481
F2.5
sssg31
(dp602
g160
(dp603
g493
F1.0
sg494
F1.0
sg495
F0.0
sg496
F0.002
sg497
F-2.1899738592999967
sg498
F4.2923494376e-05
sg499
F0.002
sg500
F1.0
sg501
F17.0
sg502
F155.67
ssg50
(dp604
g507
F-79.8821836579
sg508
F2.068954962610324e-05
ssg181
(dp605
g513
F5.85477866612e-05
ssg187
(dp606
g518
F7.63692206734
sg523
F0.00365676240119
sg522
F0.26993550346
sg521
F3.13760461868e-05
sg519
F115.040811905
sg520
F37.2740194128
ssg40
(dp607
g528
F-55.772342395
sg529
F0.306752147542
sg530
F0.0
sg531
F-78.3762490029
sg532
F32.7885075379
ssg207
(dp608
g537
F8.43780573752e-05
ssg57
(dp609
g542
F0.00501206206504
sg543
F0.0
sg544
F11.6427471384
ssg220
(dp610
g549
F7.79902252875e-05
ssg33
(dp611
g554
F0.146326621958
sg555
F0.0
ssg232
(dp612
g560
F99.1146852282
sg561
F0.119408607923
sg562
F0.0
sg563
F0.00024
sg564
F0.0
sssg117
(lp613
g460
asg72
(dp614
g74
F1.5831889597
sg76
F2.49841939531
sg77
I1
sg78
F290.25
sg75
F114.969186163
sg79
(lp615
(lp616
I0
aF48.4123467666
aI0
aF1.5831889597
aa(lp617
I0
aF338.6623467666
aI0
aF1.5831889597
aassg89
(dp618
g91
F0.0
sg92
g93
sg94
F1.0
ssg98
F-92.8364820902
sbsS'Adend2'
p619
g0
(g1
g2
(dp620
g117
(lp621
g119
(g123
S"'TL\xf7<Je?"
p622
tp623
Rp624
asg8
g0
(g1
g2
(dp625
S'na'
p626
g0
(g1
g2
(dp627
S'i'
p628
F10.0
sS'e'
p629
F42.0
sS'o'
p630
F140.0
stp631
Rp632
(dp633
g628
F10.0
sg629
F42.0
sg630
F140.0
sbsS'ca'
p634
g0
(g1
g2
(dp635
S'i'
p636
F5e-05
sS'e'
p637
F132.4579341637009
sS'o'
p638
F2.0
stp639
Rp640
(dp641
g636
F5e-05
sg637
F132.4579341637009
sg638
F2.0
sbsg18
g0
(g1
g2
(dp642
S'i'
p643
F54.4
sS'e'
p644
F-104.0
sS'o'
p645
F2.5
stp646
Rp647
(dp648
g643
F54.4
sg644
F-104.0
sg645
F2.5
sbstp649
Rp650
(dp651
g626
(dp652
g628
F10.0
sg629
F42.0
sg630
F140.0
ssg634
(dp653
g636
F5e-05
sg637
F132.4579341637009
sg638
F2.0
ssg18
(dp654
g643
F54.4
sg644
F-104.0
sg645
F2.5
ssbsg31
g0
(g1
g2
(dp655
g160
g0
(g1
g2
(dp656
S'tau'
p657
F1.0
sS'caPmax'
p658
F1.0
sS'caPmin'
p659
F0.0
sS'caVhh'
p660
F0.002
sS'caVhmin'
p661
F-2.1899738592999967
sS'gpeak'
p662
F4.2923494376e-05
sS'caPh'
p663
F0.002
sS'caPk'
p664
F1.0
sS'k'
p665
F17.0
sS'caVhmax'
p666
F155.67
stp667
Rp668
(dp669
g657
F1.0
sg658
F1.0
sg659
F0.0
sg660
F0.002
sg661
F-2.1899738592999967
sg662
F4.2923494376e-05
sg663
F0.002
sg664
F1.0
sg665
F17.0
sg666
F155.67
sbsg50
g0
(g1
g2
(dp670
S'e'
p671
F-79.8821836579
sS'g'
p672
F2.068954962610324e-05
stp673
Rp674
(dp675
g671
F-79.8821836579
sg672
F2.068954962610324e-05
sbsg181
g0
(g1
g2
(dp676
S'gcatbar'
p677
F5.85477866612e-05
stp678
Rp679
(dp680
g677
F5.85477866612e-05
sbsg187
g0
(g1
g2
(dp681
S'aslope'
p682
F7.63692206734
sS'ashift'
p683
F115.040811905
sS'bslope'
p684
F37.2740194128
sS'gbar'
p685
F3.13760461868e-05
sS'bscale'
p686
F0.26993550346
sS'ascale'
p687
F0.00365676240119
stp688
Rp689
(dp690
g682
F7.63692206734
sg687
F0.00365676240119
sg686
F0.26993550346
sg685
F3.13760461868e-05
sg683
F115.040811905
sg684
F37.2740194128
sbsg40
g0
(g1
g2
(dp691
S'tq'
p692
F-55.772342395
sS'gbar'
p693
F0.306752147542
sS'sh'
p694
F0.0
sS'vhalfl'
p695
F-78.3762490029
sS'vhalfn'
p696
F32.7885075379
stp697
Rp698
(dp699
g692
F-55.772342395
sg693
F0.306752147542
sg694
F0.0
sg695
F-78.3762490029
sg696
F32.7885075379
sbsg207
g0
(g1
g2
(dp700
S'gcanbar'
p701
F8.43780573752e-05
stp702
Rp703
(dp704
g701
F8.43780573752e-05
sbsg57
g0
(g1
g2
(dp705
S'gbar'
p706
F0.00501206206504
sS'sh'
p707
F0.0
sS'vhalfn'
p708
F11.6427471384
stp709
Rp710
(dp711
g706
F0.00501206206504
sg707
F0.0
sg708
F11.6427471384
sbsg220
g0
(g1
g2
(dp712
S'gcalbar'
p713
F7.79902252875e-05
stp714
Rp715
(dp716
g713
F7.79902252875e-05
sbsg33
g0
(g1
g2
(dp717
S'gbar'
p718
F0.146326621958
sS'sh'
p719
F0.0
stp720
Rp721
(dp722
g718
F0.146326621958
sg719
F0.0
sbsg232
g0
(g1
g2
(dp723
S'taur'
p724
F99.1146852282
sS'depth'
p725
F0.119408607923
sS'kd'
p726
F0.0
sS'cainf'
p727
F0.00024
sS'kt'
p728
F0.0
stp729
Rp730
(dp731
g724
F99.1146852282
sg725
F0.119408607923
sg726
F0.0
sg727
F0.00024
sg728
F0.0
sbstp732
Rp733
(dp734
g160
(dp735
g657
F1.0
sg658
F1.0
sg659
F0.0
sg660
F0.002
sg661
F-2.1899738592999967
sg662
F4.2923494376e-05
sg663
F0.002
sg664
F1.0
sg665
F17.0
sg666
F155.67
ssg50
(dp736
g671
F-79.8821836579
sg672
F2.068954962610324e-05
ssg181
(dp737
g677
F5.85477866612e-05
ssg187
(dp738
g682
F7.63692206734
sg687
F0.00365676240119
sg686
F0.26993550346
sg685
F3.13760461868e-05
sg683
F115.040811905
sg684
F37.2740194128
ssg40
(dp739
g692
F-55.772342395
sg693
F0.306752147542
sg694
F0.0
sg695
F-78.3762490029
sg696
F32.7885075379
ssg207
(dp740
g701
F8.43780573752e-05
ssg57
(dp741
g706
F0.00501206206504
sg707
F0.0
sg708
F11.6427471384
ssg220
(dp742
g713
F7.79902252875e-05
ssg33
(dp743
g718
F0.146326621958
sg719
F0.0
ssg232
(dp744
g724
F99.1146852282
sg725
F0.119408607923
sg726
F0.0
sg727
F0.00024
sg728
F0.0
ssbsg72
g0
(g1
g2
(dp745
g74
F1.5831889597
sg75
F114.969186163
sg76
F2.49841939531
sg77
I1
sg78
F290.25
sg79
(lp746
(lp747
I0
aF338.6623467666
aI0
aF1.5831889597
aa(lp748
I0
aF628.9123467666
aI0
aF1.5831889597
aastp749
Rp750
(dp751
g74
F1.5831889597
sg76
F2.49841939531
sg77
I1
sg78
F290.25
sg75
F114.969186163
sg79
(lp752
(lp753
I0
aF338.6623467666
aI0
aF1.5831889597
aa(lp754
I0
aF628.9123467666
aI0
aF1.5831889597
aasbsg89
g0
(g1
g2
(dp755
g91
F0.0
sg92
g455
sg94
F1.0
stp756
Rp757
(dp758
g91
F0.0
sg92
g455
sg94
F1.0
sbsg98
F-92.8364820902
stp759
Rp760
(dp761
g8
(dp762
g626
(dp763
g628
F10.0
sg629
F42.0
sg630
F140.0
ssg634
(dp764
g636
F5e-05
sg637
F132.4579341637009
sg638
F2.0
ssg18
(dp765
g643
F54.4
sg644
F-104.0
sg645
F2.5
sssg31
(dp766
g160
(dp767
g657
F1.0
sg658
F1.0
sg659
F0.0
sg660
F0.002
sg661
F-2.1899738592999967
sg662
F4.2923494376e-05
sg663
F0.002
sg664
F1.0
sg665
F17.0
sg666
F155.67
ssg50
(dp768
g671
F-79.8821836579
sg672
F2.068954962610324e-05
ssg181
(dp769
g677
F5.85477866612e-05
ssg187
(dp770
g682
F7.63692206734
sg687
F0.00365676240119
sg686
F0.26993550346
sg685
F3.13760461868e-05
sg683
F115.040811905
sg684
F37.2740194128
ssg40
(dp771
g692
F-55.772342395
sg693
F0.306752147542
sg694
F0.0
sg695
F-78.3762490029
sg696
F32.7885075379
ssg207
(dp772
g701
F8.43780573752e-05
ssg57
(dp773
g706
F0.00501206206504
sg707
F0.0
sg708
F11.6427471384
ssg220
(dp774
g713
F7.79902252875e-05
ssg33
(dp775
g718
F0.146326621958
sg719
F0.0
ssg232
(dp776
g724
F99.1146852282
sg725
F0.119408607923
sg726
F0.0
sg727
F0.00024
sg728
F0.0
sssg117
(lp777
g624
asg72
(dp778
g74
F1.5831889597
sg76
F2.49841939531
sg77
I1
sg78
F290.25
sg75
F114.969186163
sg79
(lp779
(lp780
I0
aF338.6623467666
aI0
aF1.5831889597
aa(lp781
I0
aF628.9123467666
aI0
aF1.5831889597
aassg89
(dp782
g91
F0.0
sg92
g455
sg94
F1.0
ssg98
F-92.8364820902
sbsS'Adend3'
p783
g0
(g1
g2
(dp784
g117
(lp785
g119
(g123
S'\xbc\x83+\x1b\xbeth?'
p786
tp787
Rp788
asg8
g0
(g1
g2
(dp789
S'na'
p790
g0
(g1
g2
(dp791
S'i'
p792
F10.0
sS'e'
p793
F42.0
sS'o'
p794
F140.0
stp795
Rp796
(dp797
g792
F10.0
sg793
F42.0
sg794
F140.0
sbsS'ca'
p798
g0
(g1
g2
(dp799
S'i'
p800
F5e-05
sS'e'
p801
F132.4579341637009
sS'o'
p802
F2.0
stp803
Rp804
(dp805
g800
F5e-05
sg801
F132.4579341637009
sg802
F2.0
sbsg18
g0
(g1
g2
(dp806
S'i'
p807
F54.4
sS'e'
p808
F-104.0
sS'o'
p809
F2.5
stp810
Rp811
(dp812
g807
F54.4
sg808
F-104.0
sg809
F2.5
sbstp813
Rp814
(dp815
g790
(dp816
g792
F10.0
sg793
F42.0
sg794
F140.0
ssg798
(dp817
g800
F5e-05
sg801
F132.4579341637009
sg802
F2.0
ssg18
(dp818
g807
F54.4
sg808
F-104.0
sg809
F2.5
ssbsg31
g0
(g1
g2
(dp819
g160
g0
(g1
g2
(dp820
S'tau'
p821
F1.0
sS'caPmax'
p822
F1.0
sS'caPmin'
p823
F0.0
sS'caVhh'
p824
F0.002
sS'caVhmin'
p825
F-2.1899738592999967
sS'gpeak'
p826
F4.2923494376e-05
sS'caPh'
p827
F0.002
sS'caPk'
p828
F1.0
sS'k'
p829
F17.0
sS'caVhmax'
p830
F155.67
stp831
Rp832
(dp833
g821
F1.0
sg822
F1.0
sg823
F0.0
sg824
F0.002
sg825
F-2.1899738592999967
sg826
F4.2923494376e-05
sg827
F0.002
sg828
F1.0
sg829
F17.0
sg830
F155.67
sbsg50
g0
(g1
g2
(dp834
S'e'
p835
F-79.8821836579
sS'g'
p836
F2.068954962610324e-05
stp837
Rp838
(dp839
g835
F-79.8821836579
sg836
F2.068954962610324e-05
sbsg181
g0
(g1
g2
(dp840
S'gcatbar'
p841
F5.85477866612e-05
stp842
Rp843
(dp844
g841
F5.85477866612e-05
sbsg187
g0
(g1
g2
(dp845
S'aslope'
p846
F7.63692206734
sS'ashift'
p847
F115.040811905
sS'bslope'
p848
F37.2740194128
sS'gbar'
p849
F3.13760461868e-05
sS'bscale'
p850
F0.26993550346
sS'ascale'
p851
F0.00365676240119
stp852
Rp853
(dp854
g846
F7.63692206734
sg851
F0.00365676240119
sg850
F0.26993550346
sg849
F3.13760461868e-05
sg847
F115.040811905
sg848
F37.2740194128
sbsg40
g0
(g1
g2
(dp855
S'tq'
p856
F-55.772342395
sS'gbar'
p857
F0.306752147542
sS'sh'
p858
F0.0
sS'vhalfl'
p859
F-78.3762490029
sS'vhalfn'
p860
F32.7885075379
stp861
Rp862
(dp863
g856
F-55.772342395
sg857
F0.306752147542
sg858
F0.0
sg859
F-78.3762490029
sg860
F32.7885075379
sbsg207
g0
(g1
g2
(dp864
S'gcanbar'
p865
F8.43780573752e-05
stp866
Rp867
(dp868
g865
F8.43780573752e-05
sbsg57
g0
(g1
g2
(dp869
S'gbar'
p870
F0.00501206206504
sS'sh'
p871
F0.0
sS'vhalfn'
p872
F11.6427471384
stp873
Rp874
(dp875
g870
F0.00501206206504
sg871
F0.0
sg872
F11.6427471384
sbsg220
g0
(g1
g2
(dp876
S'gcalbar'
p877
F7.79902252875e-05
stp878
Rp879
(dp880
g877
F7.79902252875e-05
sbsg33
g0
(g1
g2
(dp881
S'gbar'
p882
F0.146326621958
sS'sh'
p883
F0.0
stp884
Rp885
(dp886
g882
F0.146326621958
sg883
F0.0
sbsg232
g0
(g1
g2
(dp887
S'taur'
p888
F99.1146852282
sS'depth'
p889
F0.119408607923
sS'kd'
p890
F0.0
sS'cainf'
p891
F0.00024
sS'kt'
p892
F0.0
stp893
Rp894
(dp895
g888
F99.1146852282
sg889
F0.119408607923
sg890
F0.0
sg891
F0.00024
sg892
F0.0
sbstp896
Rp897
(dp898
g160
(dp899
g821
F1.0
sg822
F1.0
sg823
F0.0
sg824
F0.002
sg825
F-2.1899738592999967
sg826
F4.2923494376e-05
sg827
F0.002
sg828
F1.0
sg829
F17.0
sg830
F155.67
ssg50
(dp900
g835
F-79.8821836579
sg836
F2.068954962610324e-05
ssg181
(dp901
g841
F5.85477866612e-05
ssg187
(dp902
g846
F7.63692206734
sg851
F0.00365676240119
sg850
F0.26993550346
sg849
F3.13760461868e-05
sg847
F115.040811905
sg848
F37.2740194128
ssg40
(dp903
g856
F-55.772342395
sg857
F0.306752147542
sg858
F0.0
sg859
F-78.3762490029
sg860
F32.7885075379
ssg207
(dp904
g865
F8.43780573752e-05
ssg57
(dp905
g870
F0.00501206206504
sg871
F0.0
sg872
F11.6427471384
ssg220
(dp906
g877
F7.79902252875e-05
ssg33
(dp907
g882
F0.146326621958
sg883
F0.0
ssg232
(dp908
g888
F99.1146852282
sg889
F0.119408607923
sg890
F0.0
sg891
F0.00024
sg892
F0.0
ssbsg72
g0
(g1
g2
(dp909
g74
F1.5831889597
sg75
F114.969186163
sg76
F2.49841939531
sg77
I1
sg78
F290.25
sg79
(lp910
(lp911
I0
aF628.9123467666
aI0
aF1.5831889597
aa(lp912
I0
aF919.1623467666
aI0
aF1.5831889597
aastp913
Rp914
(dp915
g74
F1.5831889597
sg76
F2.49841939531
sg77
I1
sg78
F290.25
sg75
F114.969186163
sg79
(lp916
(lp917
I0
aF628.9123467666
aI0
aF1.5831889597
aa(lp918
I0
aF919.1623467666
aI0
aF1.5831889597
aasbsg89
g0
(g1
g2
(dp919
g91
F0.0
sg92
g619
sg94
F1.0
stp920
Rp921
(dp922
g91
F0.0
sg92
g619
sg94
F1.0
sbsg98
F-92.8364820902
stp923
Rp924
(dp925
g8
(dp926
g790
(dp927
g792
F10.0
sg793
F42.0
sg794
F140.0
ssg798
(dp928
g800
F5e-05
sg801
F132.4579341637009
sg802
F2.0
ssg18
(dp929
g807
F54.4
sg808
F-104.0
sg809
F2.5
sssg31
(dp930
g160
(dp931
g821
F1.0
sg822
F1.0
sg823
F0.0
sg824
F0.002
sg825
F-2.1899738592999967
sg826
F4.2923494376e-05
sg827
F0.002
sg828
F1.0
sg829
F17.0
sg830
F155.67
ssg50
(dp932
g835
F-79.8821836579
sg836
F2.068954962610324e-05
ssg181
(dp933
g841
F5.85477866612e-05
ssg187
(dp934
g846
F7.63692206734
sg851
F0.00365676240119
sg850
F0.26993550346
sg849
F3.13760461868e-05
sg847
F115.040811905
sg848
F37.2740194128
ssg40
(dp935
g856
F-55.772342395
sg857
F0.306752147542
sg858
F0.0
sg859
F-78.3762490029
sg860
F32.7885075379
ssg207
(dp936
g865
F8.43780573752e-05
ssg57
(dp937
g870
F0.00501206206504
sg871
F0.0
sg872
F11.6427471384
ssg220
(dp938
g877
F7.79902252875e-05
ssg33
(dp939
g882
F0.146326621958
sg883
F0.0
ssg232
(dp940
g888
F99.1146852282
sg889
F0.119408607923
sg890
F0.0
sg891
F0.00024
sg892
F0.0
sssg117
(lp941
g788
asg72
(dp942
g74
F1.5831889597
sg76
F2.49841939531
sg77
I1
sg78
F290.25
sg75
F114.969186163
sg79
(lp943
(lp944
I0
aF628.9123467666
aI0
aF1.5831889597
aa(lp945
I0
aF919.1623467666
aI0
aF1.5831889597
aassg89
(dp946
g91
F0.0
sg92
g619
sg94
F1.0
ssg98
F-92.8364820902
sbstp947
Rp948
(dp949
g93
(dp950
g8
(dp951
g299
(dp952
g301
F10.0
sg302
F42.0
sg303
F140.0
ssg307
(dp953
g309
F5e-05
sg310
F132.4579341637009
sg311
F2.0
ssg18
(dp954
g316
F54.4
sg317
F-104.0
sg318
F2.5
sssg31
(dp955
g160
(dp956
g330
F1.0
sg331
F1.0
sg332
F0.0
sg333
F0.002
sg334
F-2.1899738592999967
sg335
F4.2923494376e-05
sg336
F0.002
sg337
F1.0
sg338
F17.0
sg339
F155.67
ssg50
(dp957
g344
F-79.8821836579
sg345
F3.913592118479913e-05
ssg181
(dp958
g350
F5.85477866612e-05
ssg187
(dp959
g355
F7.63692206734
sg360
F0.00365676240119
sg359
F0.26993550346
sg358
F3.13760461868e-05
sg356
F115.040811905
sg357
F37.2740194128
ssg40
(dp960
g365
F-55.772342395
sg366
F0.306752147542
sg367
F0.0
sg368
F-78.3762490029
sg369
F32.7885075379
ssg207
(dp961
g374
F8.43780573752e-05
ssg57
(dp962
g379
F0.00501206206504
sg380
F0.0
sg381
F11.6427471384
ssg220
(dp963
g386
F7.79902252875e-05
ssg33
(dp964
g391
F0.146326621958
sg392
F0.0
ssg232
(dp965
g397
F99.1146852282
sg398
F0.119408607923
sg399
F0.0
sg400
F0.00024
sg401
F0.0
sssg117
(lp966
g297
asg72
(dp967
g74
F28.2149102762
sg76
F1.89133252551
sg77
I1
sg78
F48.4123467666
sg75
F114.969186163
sg79
(lp968
(lp969
I0
aI0
aI0
aF28.2149102762
aa(lp970
I0
aF48.4123467666
aI0
aF28.2149102762
aassg89
(dp971
sg98
F-92.8364820902
ssg455
(dp972
g8
(dp973
g462
(dp974
g464
F10.0
sg465
F42.0
sg466
F140.0
ssg470
(dp975
g472
F5e-05
sg473
F132.4579341637009
sg474
F2.0
ssg18
(dp976
g479
F54.4
sg480
F-104.0
sg481
F2.5
sssg31
(dp977
g160
(dp978
g493
F1.0
sg494
F1.0
sg495
F0.0
sg496
F0.002
sg497
F-2.1899738592999967
sg498
F4.2923494376e-05
sg499
F0.002
sg500
F1.0
sg501
F17.0
sg502
F155.67
ssg50
(dp979
g507
F-79.8821836579
sg508
F2.068954962610324e-05
ssg181
(dp980
g513
F5.85477866612e-05
ssg187
(dp981
g518
F7.63692206734
sg523
F0.00365676240119
sg522
F0.26993550346
sg521
F3.13760461868e-05
sg519
F115.040811905
sg520
F37.2740194128
ssg40
(dp982
g528
F-55.772342395
sg529
F0.306752147542
sg530
F0.0
sg531
F-78.3762490029
sg532
F32.7885075379
ssg207
(dp983
g537
F8.43780573752e-05
ssg57
(dp984
g542
F0.00501206206504
sg543
F0.0
sg544
F11.6427471384
ssg220
(dp985
g549
F7.79902252875e-05
ssg33
(dp986
g554
F0.146326621958
sg555
F0.0
ssg232
(dp987
g560
F99.1146852282
sg561
F0.119408607923
sg562
F0.0
sg563
F0.00024
sg564
F0.0
sssg117
(lp988
g460
asg72
(dp989
g74
F1.5831889597
sg76
F2.49841939531
sg77
I1
sg78
F290.25
sg75
F114.969186163
sg79
(lp990
(lp991
I0
aF48.4123467666
aI0
aF1.5831889597
aa(lp992
I0
aF338.6623467666
aI0
aF1.5831889597
aassg89
(dp993
g91
F0.0
sg92
g93
sg94
F1.0
ssg98
F-92.8364820902
ssg619
(dp994
g8
(dp995
g626
(dp996
g628
F10.0
sg629
F42.0
sg630
F140.0
ssg634
(dp997
g636
F5e-05
sg637
F132.4579341637009
sg638
F2.0
ssg18
(dp998
g643
F54.4
sg644
F-104.0
sg645
F2.5
sssg31
(dp999
g160
(dp1000
g657
F1.0
sg658
F1.0
sg659
F0.0
sg660
F0.002
sg661
F-2.1899738592999967
sg662
F4.2923494376e-05
sg663
F0.002
sg664
F1.0
sg665
F17.0
sg666
F155.67
ssg50
(dp1001
g671
F-79.8821836579
sg672
F2.068954962610324e-05
ssg181
(dp1002
g677
F5.85477866612e-05
ssg187
(dp1003
g682
F7.63692206734
sg687
F0.00365676240119
sg686
F0.26993550346
sg685
F3.13760461868e-05
sg683
F115.040811905
sg684
F37.2740194128
ssg40
(dp1004
g692
F-55.772342395
sg693
F0.306752147542
sg694
F0.0
sg695
F-78.3762490029
sg696
F32.7885075379
ssg207
(dp1005
g701
F8.43780573752e-05
ssg57
(dp1006
g706
F0.00501206206504
sg707
F0.0
sg708
F11.6427471384
ssg220
(dp1007
g713
F7.79902252875e-05
ssg33
(dp1008
g718
F0.146326621958
sg719
F0.0
ssg232
(dp1009
g724
F99.1146852282
sg725
F0.119408607923
sg726
F0.0
sg727
F0.00024
sg728
F0.0
sssg117
(lp1010
g624
asg72
(dp1011
g74
F1.5831889597
sg76
F2.49841939531
sg77
I1
sg78
F290.25
sg75
F114.969186163
sg79
(lp1012
(lp1013
I0
aF338.6623467666
aI0
aF1.5831889597
aa(lp1014
I0
aF628.9123467666
aI0
aF1.5831889597
aassg89
(dp1015
g91
F0.0
sg92
g455
sg94
F1.0
ssg98
F-92.8364820902
ssg783
(dp1016
g8
(dp1017
g790
(dp1018
g792
F10.0
sg793
F42.0
sg794
F140.0
ssg798
(dp1019
g800
F5e-05
sg801
F132.4579341637009
sg802
F2.0
ssg18
(dp1020
g807
F54.4
sg808
F-104.0
sg809
F2.5
sssg31
(dp1021
g160
(dp1022
g821
F1.0
sg822
F1.0
sg823
F0.0
sg824
F0.002
sg825
F-2.1899738592999967
sg826
F4.2923494376e-05
sg827
F0.002
sg828
F1.0
sg829
F17.0
sg830
F155.67
ssg50
(dp1023
g835
F-79.8821836579
sg836
F2.068954962610324e-05
ssg181
(dp1024
g841
F5.85477866612e-05
ssg187
(dp1025
g846
F7.63692206734
sg851
F0.00365676240119
sg850
F0.26993550346
sg849
F3.13760461868e-05
sg847
F115.040811905
sg848
F37.2740194128
ssg40
(dp1026
g856
F-55.772342395
sg857
F0.306752147542
sg858
F0.0
sg859
F-78.3762490029
sg860
F32.7885075379
ssg207
(dp1027
g865
F8.43780573752e-05
ssg57
(dp1028
g870
F0.00501206206504
sg871
F0.0
sg872
F11.6427471384
ssg220
(dp1029
g877
F7.79902252875e-05
ssg33
(dp1030
g882
F0.146326621958
sg883
F0.0
ssg232
(dp1031
g888
F99.1146852282
sg889
F0.119408607923
sg890
F0.0
sg891
F0.00024
sg892
F0.0
sssg117
(lp1032
g788
asg72
(dp1033
g74
F1.5831889597
sg76
F2.49841939531
sg77
I1
sg78
F290.25
sg75
F114.969186163
sg79
(lp1034
(lp1035
I0
aF628.9123467666
aI0
aF1.5831889597
aa(lp1036
I0
aF919.1623467666
aI0
aF1.5831889597
aassg89
(dp1037
g91
F0.0
sg92
g619
sg94
F1.0
ssg98
F-92.8364820902
ssg6
(dp1038
g8
(dp1039
g10
(dp1040
g12
F10.0
sg13
F42.0
sg14
F140.0
ssg18
(dp1041
g20
F54.4
sg21
F-104.0
sg22
F2.5
sssg31
(dp1042
g33
(dp1043
g35
F0.73163310979
sg36
F0.0
ssg40
(dp1044
g42
F-55.772342395
sg43
F1.5337607377099998
sg44
F0.0
sg45
F-78.3762490029
sg46
F32.7885075379
ssg50
(dp1045
g52
F-79.8821836579
sg53
F0.00032045160242059065
ssg57
(dp1046
g59
F0.025060310325199998
sg60
F0.0
sg61
F11.6427471384
sssg72
(dp1047
g74
F1.40966286462
sg76
F1.87389705992
sg77
I1
sg78
F594.292937602
sg75
F114.969186163
sg79
(lp1048
(lp1049
I0
aI0
aI0
aF1.40966286462
aa(lp1050
I0
aF-594.292937602
aI0
aF1.40966286462
aassg89
(dp1051
g91
F0.0
sg92
g93
sg94
F0.0
ssg98
F-92.8364820902
ssg115
(dp1052
g8
(dp1053
g130
(dp1054
g132
F10.0
sg133
F42.0
sg134
F140.0
ssg138
(dp1055
g140
F5e-05
sg141
F132.4579341637009
sg142
F2.0
ssg18
(dp1056
g147
F54.4
sg148
F-104.0
sg149
F2.5
sssg31
(dp1057
g160
(dp1058
g162
F1.0
sg163
F1.0
sg164
F0.0
sg165
F0.002
sg166
F-2.1899738592999967
sg167
F4.2923494376e-05
sg168
F0.002
sg169
F1.0
sg170
F17.0
sg171
F155.67
ssg50
(dp1059
g176
F-79.8821836579
sg177
F8.5005383721367e-05
ssg181
(dp1060
g183
F5.85477866612e-05
ssg187
(dp1061
g189
F7.63692206734
sg194
F0.00365676240119
sg193
F0.26993550346
sg192
F3.13760461868e-05
sg190
F115.040811905
sg191
F37.2740194128
ssg40
(dp1062
g199
F-55.772342395
sg200
F0.306752147542
sg201
F0.0
sg202
F-78.3762490029
sg203
F32.7885075379
ssg207
(dp1063
g209
F8.43780573752e-05
ssg57
(dp1064
g214
F0.00501206206504
sg215
F0.0
sg216
F11.6427471384
ssg220
(dp1065
g222
F7.79902252875e-05
ssg33
(dp1066
g227
F0.146326621958
sg228
F0.0
ssg232
(dp1067
g234
F99.1146852282
sg235
F0.119408607923
sg236
F0.0
sg237
F0.00024
sg238
F0.0
sssg117
(lp1068
g128
asg72
(dp1069
g74
F2.2799248874
sg76
F2.46671987855
sg77
I1
sg78
F290.25
sg75
F114.969186163
sg79
(lp1070
(lp1071
I0
aI0
aI0
aF2.2799248874
aa(lp1072
F290.25
aI0
aI0
aF2.2799248874
aassg89
(dp1073
g91
F0.0
sg92
g93
sg94
F0.5
ssg98
F-92.8364820902
ssbsS'globals'
p1074
g0
(g1
g2
(dp1075
S'celsius'
p1076
F34.0
sS'v_init'
p1077
F-92.8364820902
sS'erev_ih'
p1078
F-37.0
stp1079
Rp1080
(dp1081
g1076
F34.0
sg1077
F-92.8364820902
sg1078
F-37.0
sbsS'secLists'
p1082
g0
(g1
g2
(dp1083
S'alldend'
p1084
(lp1085
g455
ag619
ag783
ag115
asS'apicdend'
p1086
(lp1087
g455
ag619
ag783
asS'spiny'
p1088
(lp1089
g455
ag619
ag783
ag115
asS'perisom'
p1090
(lp1091
g93
astp1092
Rp1093
(dp1094
g1084
(lp1095
g455
ag619
ag783
ag115
asg1086
(lp1096
g455
ag619
ag783
asg1088
(lp1097
g455
ag619
ag783
ag115
asg1090
(lp1098
g93
asbsS'conds'
p1099
g0
(g1
g2
(dp1100
S'cellModel'
p1101
S'HH_reduced'
p1102
sS'cellType'
p1103
S'IT'
p1104
sS'ynorm'
p1105
(lp1106
F0.52
aF0.77
astp1107
Rp1108
(dp1109
g1101
g1102
sg1103
g1104
sg1105
(lp1110
F0.52
aF0.77
asbstp1111
Rp1112
(dp1113
g4
(dp1114
g93
(dp1115
g8
(dp1116
g299
(dp1117
g301
F10.0
sg302
F42.0
sg303
F140.0
ssg307
(dp1118
g309
F5e-05
sg310
F132.4579341637009
sg311
F2.0
ssg18
(dp1119
g316
F54.4
sg317
F-104.0
sg318
F2.5
sssg31
(dp1120
g160
(dp1121
g330
F1.0
sg331
F1.0
sg332
F0.0
sg333
F0.002
sg334
F-2.1899738592999967
sg335
F4.2923494376e-05
sg336
F0.002
sg337
F1.0
sg338
F17.0
sg339
F155.67
ssg50
(dp1122
g344
F-79.8821836579
sg345
F3.913592118479913e-05
ssg181
(dp1123
g350
F5.85477866612e-05
ssg187
(dp1124
g355
F7.63692206734
sg360
F0.00365676240119
sg359
F0.26993550346
sg358
F3.13760461868e-05
sg356
F115.040811905
sg357
F37.2740194128
ssg40
(dp1125
g365
F-55.772342395
sg366
F0.306752147542
sg367
F0.0
sg368
F-78.3762490029
sg369
F32.7885075379
ssg207
(dp1126
g374
F8.43780573752e-05
ssg57
(dp1127
g379
F0.00501206206504
sg380
F0.0
sg381
F11.6427471384
ssg220
(dp1128
g386
F7.79902252875e-05
ssg33
(dp1129
g391
F0.146326621958
sg392
F0.0
ssg232
(dp1130
g397
F99.1146852282
sg398
F0.119408607923
sg399
F0.0
sg400
F0.00024
sg401
F0.0
sssg117
(lp1131
g297
asg72
(dp1132
g74
F28.2149102762
sg76
F1.89133252551
sg77
I1
sg78
F48.4123467666
sg75
F114.969186163
sg79
(lp1133
(lp1134
I0
aI0
aI0
aF28.2149102762
aa(lp1135
I0
aF48.4123467666
aI0
aF28.2149102762
aassg89
(dp1136
sg98
F-92.8364820902
ssg455
(dp1137
g8
(dp1138
g462
(dp1139
g464
F10.0
sg465
F42.0
sg466
F140.0
ssg470
(dp1140
g472
F5e-05
sg473
F132.4579341637009
sg474
F2.0
ssg18
(dp1141
g479
F54.4
sg480
F-104.0
sg481
F2.5
sssg31
(dp1142
g160
(dp1143
g493
F1.0
sg494
F1.0
sg495
F0.0
sg496
F0.002
sg497
F-2.1899738592999967
sg498
F4.2923494376e-05
sg499
F0.002
sg500
F1.0
sg501
F17.0
sg502
F155.67
ssg50
(dp1144
g507
F-79.8821836579
sg508
F2.068954962610324e-05
ssg181
(dp1145
g513
F5.85477866612e-05
ssg187
(dp1146
g518
F7.63692206734
sg523
F0.00365676240119
sg522
F0.26993550346
sg521
F3.13760461868e-05
sg519
F115.040811905
sg520
F37.2740194128
ssg40
(dp1147
g528
F-55.772342395
sg529
F0.306752147542
sg530
F0.0
sg531
F-78.3762490029
sg532
F32.7885075379
ssg207
(dp1148
g537
F8.43780573752e-05
ssg57
(dp1149
g542
F0.00501206206504
sg543
F0.0
sg544
F11.6427471384
ssg220
(dp1150
g549
F7.79902252875e-05
ssg33
(dp1151
g554
F0.146326621958
sg555
F0.0
ssg232
(dp1152
g560
F99.1146852282
sg561
F0.119408607923
sg562
F0.0
sg563
F0.00024
sg564
F0.0
sssg117
(lp1153
g460
asg72
(dp1154
g74
F1.5831889597
sg76
F2.49841939531
sg77
I1
sg78
F290.25
sg75
F114.969186163
sg79
(lp1155
(lp1156
I0
aF48.4123467666
aI0
aF1.5831889597
aa(lp1157
I0
aF338.6623467666
aI0
aF1.5831889597
aassg89
(dp1158
g91
F0.0
sg92
g93
sg94
F1.0
ssg98
F-92.8364820902
ssg619
(dp1159
g8
(dp1160
g626
(dp1161
g628
F10.0
sg629
F42.0
sg630
F140.0
ssg634
(dp1162
g636
F5e-05
sg637
F132.4579341637009
sg638
F2.0
ssg18
(dp1163
g643
F54.4
sg644
F-104.0
sg645
F2.5
sssg31
(dp1164
g160
(dp1165
g657
F1.0
sg658
F1.0
sg659
F0.0
sg660
F0.002
sg661
F-2.1899738592999967
sg662
F4.2923494376e-05
sg663
F0.002
sg664
F1.0
sg665
F17.0
sg666
F155.67
ssg50
(dp1166
g671
F-79.8821836579
sg672
F2.068954962610324e-05
ssg181
(dp1167
g677
F5.85477866612e-05
ssg187
(dp1168
g682
F7.63692206734
sg687
F0.00365676240119
sg686
F0.26993550346
sg685
F3.13760461868e-05
sg683
F115.040811905
sg684
F37.2740194128
ssg40
(dp1169
g692
F-55.772342395
sg693
F0.306752147542
sg694
F0.0
sg695
F-78.3762490029
sg696
F32.7885075379
ssg207
(dp1170
g701
F8.43780573752e-05
ssg57
(dp1171
g706
F0.00501206206504
sg707
F0.0
sg708
F11.6427471384
ssg220
(dp1172
g713
F7.79902252875e-05
ssg33
(dp1173
g718
F0.146326621958
sg719
F0.0
ssg232
(dp1174
g724
F99.1146852282
sg725
F0.119408607923
sg726
F0.0
sg727
F0.00024
sg728
F0.0
sssg117
(lp1175
g624
asg72
(dp1176
g74
F1.5831889597
sg76
F2.49841939531
sg77
I1
sg78
F290.25
sg75
F114.969186163
sg79
(lp1177
(lp1178
I0
aF338.6623467666
aI0
aF1.5831889597
aa(lp1179
I0
aF628.9123467666
aI0
aF1.5831889597
aassg89
(dp1180
g91
F0.0
sg92
g455
sg94
F1.0
ssg98
F-92.8364820902
ssg783
(dp1181
g8
(dp1182
g790
(dp1183
g792
F10.0
sg793
F42.0
sg794
F140.0
ssg798
(dp1184
g800
F5e-05
sg801
F132.4579341637009
sg802
F2.0
ssg18
(dp1185
g807
F54.4
sg808
F-104.0
sg809
F2.5
sssg31
(dp1186
g160
(dp1187
g821
F1.0
sg822
F1.0
sg823
F0.0
sg824
F0.002
sg825
F-2.1899738592999967
sg826
F4.2923494376e-05
sg827
F0.002
sg828
F1.0
sg829
F17.0
sg830
F155.67
ssg50
(dp1188
g835
F-79.8821836579
sg836
F2.068954962610324e-05
ssg181
(dp1189
g841
F5.85477866612e-05
ssg187
(dp1190
g846
F7.63692206734
sg851
F0.00365676240119
sg850
F0.26993550346
sg849
F3.13760461868e-05
sg847
F115.040811905
sg848
F37.2740194128
ssg40
(dp1191
g856
F-55.772342395
sg857
F0.306752147542
sg858
F0.0
sg859
F-78.3762490029
sg860
F32.7885075379
ssg207
(dp1192
g865
F8.43780573752e-05
ssg57
(dp1193
g870
F0.00501206206504
sg871
F0.0
sg872
F11.6427471384
ssg220
(dp1194
g877
F7.79902252875e-05
ssg33
(dp1195
g882
F0.146326621958
sg883
F0.0
ssg232
(dp1196
g888
F99.1146852282
sg889
F0.119408607923
sg890
F0.0
sg891
F0.00024
sg892
F0.0
sssg117
(lp1197
g788
asg72
(dp1198
g74
F1.5831889597
sg76
F2.49841939531
sg77
I1
sg78
F290.25
sg75
F114.969186163
sg79
(lp1199
(lp1200
I0
aF628.9123467666
aI0
aF1.5831889597
aa(lp1201
I0
aF919.1623467666
aI0
aF1.5831889597
aassg89
(dp1202
g91
F0.0
sg92
g619
sg94
F1.0
ssg98
F-92.8364820902
ssg6
(dp1203
g8
(dp1204
g10
(dp1205
g12
F10.0
sg13
F42.0
sg14
F140.0
ssg18
(dp1206
g20
F54.4
sg21
F-104.0
sg22
F2.5
sssg31
(dp1207
g33
(dp1208
g35
F0.73163310979
sg36
F0.0
ssg40
(dp1209
g42
F-55.772342395
sg43
F1.5337607377099998
sg44
F0.0
sg45
F-78.3762490029
sg46
F32.7885075379
ssg50
(dp1210
g52
F-79.8821836579
sg53
F0.00032045160242059065
ssg57
(dp1211
g59
F0.025060310325199998
sg60
F0.0
sg61
F11.6427471384
sssg72
(dp1212
g74
F1.40966286462
sg76
F1.87389705992
sg77
I1
sg78
F594.292937602
sg75
F114.969186163
sg79
(lp1213
(lp1214
I0
aI0
aI0
aF1.40966286462
aa(lp1215
I0
aF-594.292937602
aI0
aF1.40966286462
aassg89
(dp1216
g91
F0.0
sg92
g93
sg94
F0.0
ssg98
F-92.8364820902
ssg115
(dp1217
g8
(dp1218
g130
(dp1219
g132
F10.0
sg133
F42.0
sg134
F140.0
ssg138
(dp1220
g140
F5e-05
sg141
F132.4579341637009
sg142
F2.0
ssg18
(dp1221
g147
F54.4
sg148
F-104.0
sg149
F2.5
sssg31
(dp1222
g160
(dp1223
g162
F1.0
sg163
F1.0
sg164
F0.0
sg165
F0.002
sg166
F-2.1899738592999967
sg167
F4.2923494376e-05
sg168
F0.002
sg169
F1.0
sg170
F17.0
sg171
F155.67
ssg50
(dp1224
g176
F-79.8821836579
sg177
F8.5005383721367e-05
ssg181
(dp1225
g183
F5.85477866612e-05
ssg187
(dp1226
g189
F7.63692206734
sg194
F0.00365676240119
sg193
F0.26993550346
sg192
F3.13760461868e-05
sg190
F115.040811905
sg191
F37.2740194128
ssg40
(dp1227
g199
F-55.772342395
sg200
F0.306752147542
sg201
F0.0
sg202
F-78.3762490029
sg203
F32.7885075379
ssg207
(dp1228
g209
F8.43780573752e-05
ssg57
(dp1229
g214
F0.00501206206504
sg215
F0.0
sg216
F11.6427471384
ssg220
(dp1230
g222
F7.79902252875e-05
ssg33
(dp1231
g227
F0.146326621958
sg228
F0.0
ssg232
(dp1232
g234
F99.1146852282
sg235
F0.119408607923
sg236
F0.0
sg237
F0.00024
sg238
F0.0
sssg117
(lp1233
g128
asg72
(dp1234
g74
F2.2799248874
sg76
F2.46671987855
sg77
I1
sg78
F290.25
sg75
F114.969186163
sg79
(lp1235
(lp1236
I0
aI0
aI0
aF2.2799248874
aa(lp1237
F290.25
aI0
aI0
aF2.2799248874
aassg89
(dp1238
g91
F0.0
sg92
g93
sg94
F0.5
ssg98
F-92.8364820902
sssg1074
(dp1239
g1076
F34.0
sg1077
F-92.8364820902
sg1078
F-37.0
ssg1082
(dp1240
g1084
(lp1241
g455
ag619
ag783
ag115
asg1086
(lp1242
g455
ag619
ag783
asg1088
(lp1243
g455
ag619
ag783
ag115
asg1090
(lp1244
g93
assg1099
(dp1245
g1101
g1102
sg1103
g1104
sg1105
(lp1246
F0.52
aF0.77
assb.