ccopy_reg
_reconstructor
p0
(cnetpyne.specs
Dict
p1
c__builtin__
dict
p2
(dp3
S'secs'
p4
g0
(g1
g2
(dp5
S'axon'
p6
g0
(g1
g2
(dp7
S'weightNorm'
p8
(lp9
cnumpy.core.multiarray
scalar
p10
(cnumpy
dtype
p11
(S'f8'
p12
I0
I1
tp13
Rp14
(I3
S'<'
p15
NNNI-1
I-1
I0
tp16
bS'\xa0\xf2\xe3\x8b2\tY?'
p17
tp18
Rp19
asS'ions'
p20
g0
(g1
g2
(dp21
S'na'
p22
g0
(g1
g2
(dp23
S'i'
p24
F10.0
sS'e'
p25
F42.0
sS'o'
p26
F140.0
stp27
Rp28
(dp29
g24
F10.0
sg25
F42.0
sg26
F140.0
sbsS'k'
p30
g0
(g1
g2
(dp31
S'i'
p32
F54.4
sS'e'
p33
F-104.0
sS'o'
p34
F2.5
stp35
Rp36
(dp37
g32
F54.4
sg33
F-104.0
sg34
F2.5
sbstp38
Rp39
(dp40
g22
(dp41
g24
F10.0
sg25
F42.0
sg26
F140.0
ssg30
(dp42
g32
F54.4
sg33
F-104.0
sg34
F2.5
ssbsS'mechs'
p43
g0
(g1
g2
(dp44
S'kdmc'
p45
g0
(g1
g2
(dp46
S'gbar'
p47
F0.00894731261468
stp48
Rp49
(dp50
g47
F0.00894731261468
sbsS'nax'
p51
g0
(g1
g2
(dp52
S'gbar'
p53
F0.1725586474515
sS'sh'
p54
F0.0
stp55
Rp56
(dp57
g53
F0.1725586474515
sg54
F0.0
sbsS'kap'
p58
g0
(g1
g2
(dp59
S'tq'
p60
F-52.0967985869
sS'gbar'
p61
F0.4493001231985
sS'sh'
p62
F0.0
sS'vhalfl'
p63
F-59.7867409796
sS'vhalfn'
p64
F32.7885075379
stp65
Rp66
(dp67
g60
F-52.0967985869
sg61
F0.4493001231985
sg62
F0.0
sg63
F-59.7867409796
sg64
F32.7885075379
sbsS'pas'
p68
g0
(g1
g2
(dp69
S'e'
p70
F-88.5366550238
sS'g'
p71
F0.00025347188561059
stp72
Rp73
(dp74
g70
F-88.5366550238
sg71
F0.00025347188561059
sbsS'kdr'
p75
g0
(g1
g2
(dp76
S'gbar'
p77
F0.0655519890245
sS'sh'
p78
F0.0
sS'vhalfn'
p79
F11.6427471384
stp80
Rp81
(dp82
g77
F0.0655519890245
sg78
F0.0
sg79
F11.6427471384
sbstp83
Rp84
(dp85
g45
(dp86
g47
F0.00894731261468
ssg51
(dp87
g53
F0.1725586474515
sg54
F0.0
ssg58
(dp88
g60
F-52.0967985869
sg61
F0.4493001231985
sg62
F0.0
sg63
F-59.7867409796
sg64
F32.7885075379
ssg68
(dp89
g70
F-88.5366550238
sg71
F0.00025347188561059
ssg75
(dp90
g77
F0.0655519890245
sg78
F0.0
sg79
F11.6427471384
ssbsS'geom'
p91
g0
(g1
g2
(dp92
S'diam'
p93
F1.40966286462
sS'Ra'
p94
F114.510490019
sS'cm'
p95
F1.01280903702
sS'nseg'
p96
I1
sS'L'
p97
F594.292937602
sS'pt3d'
p98
(lp99
(lp100
I0
aI0
aI0
aF1.40966286462
aa(lp101
I0
aF-594.292937602
aI0
aF1.40966286462
aastp102
Rp103
(dp104
g93
F1.40966286462
sg95
F1.01280903702
sg96
I1
sg97
F594.292937602
sg94
F114.510490019
sg98
(lp105
(lp106
I0
aI0
aI0
aF1.40966286462
aa(lp107
I0
aF-594.292937602
aI0
aF1.40966286462
aasbsS'topol'
p108
g0
(g1
g2
(dp109
S'childX'
p110
F0.0
sS'parentSec'
p111
S'soma'
p112
sS'parentX'
p113
F0.0
stp114
Rp115
(dp116
g110
F0.0
sg111
g112
sg113
F0.0
sbsS'vinit'
p117
F-75.0413649414
stp118
Rp119
(dp120
g20
(dp121
g22
(dp122
g24
F10.0
sg25
F42.0
sg26
F140.0
ssg30
(dp123
g32
F54.4
sg33
F-104.0
sg34
F2.5
sssg43
(dp124
g45
(dp125
g47
F0.00894731261468
ssg51
(dp126
g53
F0.1725586474515
sg54
F0.0
ssg58
(dp127
g60
F-52.0967985869
sg61
F0.4493001231985
sg62
F0.0
sg63
F-59.7867409796
sg64
F32.7885075379
ssg68
(dp128
g70
F-88.5366550238
sg71
F0.00025347188561059
ssg75
(dp129
g77
F0.0655519890245
sg78
F0.0
sg79
F11.6427471384
sssg8
(lp130
g19
asg91
(dp131
g93
F1.40966286462
sg95
F1.01280903702
sg96
I1
sg97
F594.292937602
sg94
F114.510490019
sg98
(lp132
(lp133
I0
aI0
aI0
aF1.40966286462
aa(lp134
I0
aF-594.292937602
aI0
aF1.40966286462
aassg108
(dp135
g110
F0.0
sg111
g112
sg113
F0.0
ssg117
F-75.0413649414
sbsS'Bdend'
p136
g0
(g1
g2
(dp137
g8
(lp138
g10
(g14
S'\xd4\xa9U\x9a\x87\xafD?'
p139
tp140
Rp141
asg20
g0
(g1
g2
(dp142
S'na'
p143
g0
(g1
g2
(dp144
S'i'
p145
F10.0
sS'e'
p146
F42.0
sS'o'
p147
F140.0
stp148
Rp149
(dp150
g145
F10.0
sg146
F42.0
sg147
F140.0
sbsS'ca'
p151
g0
(g1
g2
(dp152
S'i'
p153
F5e-05
sS'e'
p154
F132.4579341637009
sS'o'
p155
F2.0
stp156
Rp157
(dp158
g153
F5e-05
sg154
F132.4579341637009
sg155
F2.0
sbsg30
g0
(g1
g2
(dp159
S'i'
p160
F54.4
sS'e'
p161
F-104.0
sS'o'
p162
F2.5
stp163
Rp164
(dp165
g160
F54.4
sg161
F-104.0
sg162
F2.5
sbstp166
Rp167
(dp168
g143
(dp169
g145
F10.0
sg146
F42.0
sg147
F140.0
ssg151
(dp170
g153
F5e-05
sg154
F132.4579341637009
sg155
F2.0
ssg30
(dp171
g160
F54.4
sg161
F-104.0
sg162
F2.5
ssbsg43
g0
(g1
g2
(dp172
S'kBK'
p173
g0
(g1
g2
(dp174
S'tau'
p175
F1.0
sS'caPmax'
p176
F1.0
sS'caPmin'
p177
F0.0
sS'caVhh'
p178
F0.002
sS'caVhmin'
p179
F-2.1899738592999967
sS'gpeak'
p180
F5.09733585163e-05
sS'caPh'
p181
F0.002
sS'caPk'
p182
F1.0
sS'k'
p183
F17.0
sS'caVhmax'
p184
F155.67
stp185
Rp186
(dp187
g175
F1.0
sg176
F1.0
sg177
F0.0
sg178
F0.002
sg179
F-2.1899738592999967
sg180
F5.09733585163e-05
sg181
F0.002
sg182
F1.0
sg183
F17.0
sg184
F155.67
sbsg68
g0
(g1
g2
(dp188
S'e'
p189
F-88.5366550238
sS'g'
p190
F7.620207783345154e-05
stp191
Rp192
(dp193
g189
F-88.5366550238
sg190
F7.620207783345154e-05
sbsS'ih'
p194
g0
(g1
g2
(dp195
S'aslope'
p196
F11.9
sS'ashift'
p197
F154.9
sS'bslope'
p198
F33.1
sS'gbar'
p199
F0.000140956438043
sS'bscale'
p200
F0.193
sS'ascale'
p201
F0.00643
stp202
Rp203
(dp204
g196
F11.9
sg201
F0.00643
sg200
F0.193
sg199
F0.000140956438043
sg197
F154.9
sg198
F33.1
sbsg58
g0
(g1
g2
(dp205
S'tq'
p206
F-52.0967985869
sS'gbar'
p207
F0.0898600246397
sS'sh'
p208
F0.0
sS'vhalfl'
p209
F-59.7867409796
sS'vhalfn'
p210
F32.7885075379
stp211
Rp212
(dp213
g206
F-52.0967985869
sg207
F0.0898600246397
sg208
F0.0
sg209
F-59.7867409796
sg210
F32.7885075379
sbsS'can'
p214
g0
(g1
g2
(dp215
S'gcanbar'
p216
F4.60717910591e-06
stp217
Rp218
(dp219
g216
F4.60717910591e-06
sbsg75
g0
(g1
g2
(dp220
S'gbar'
p221
F0.0131103978049
sS'sh'
p222
F0.0
sS'vhalfn'
p223
F11.6427471384
stp224
Rp225
(dp226
g221
F0.0131103978049
sg222
F0.0
sg223
F11.6427471384
sbsS'cal'
p227
g0
(g1
g2
(dp228
S'gcalbar'
p229
F4.41583533572e-06
stp230
Rp231
(dp232
g229
F4.41583533572e-06
sbsg51
g0
(g1
g2
(dp233
S'gbar'
p234
F0.0345117294903
sS'sh'
p235
F0.0
stp236
Rp237
(dp238
g234
F0.0345117294903
sg235
F0.0
sbsS'cadad'
p239
g0
(g1
g2
(dp240
S'taur'
p241
F99.1146852282
sS'depth'
p242
F0.119408607923
sS'kd'
p243
F0.0
sS'cainf'
p244
F0.00024
sS'kt'
p245
F0.0
stp246
Rp247
(dp248
g241
F99.1146852282
sg242
F0.119408607923
sg243
F0.0
sg244
F0.00024
sg245
F0.0
sbstp249
Rp250
(dp251
g173
(dp252
g175
F1.0
sg176
F1.0
sg177
F0.0
sg178
F0.002
sg179
F-2.1899738592999967
sg180
F5.09733585163e-05
sg181
F0.002
sg182
F1.0
sg183
F17.0
sg184
F155.67
ssg68
(dp253
g189
F-88.5366550238
sg190
F7.620207783345154e-05
ssg194
(dp254
g196
F11.9
sg201
F0.00643
sg200
F0.193
sg199
F0.000140956438043
sg197
F154.9
sg198
F33.1
ssg58
(dp255
g206
F-52.0967985869
sg207
F0.0898600246397
sg208
F0.0
sg209
F-59.7867409796
sg210
F32.7885075379
ssg214
(dp256
g216
F4.60717910591e-06
ssg75
(dp257
g221
F0.0131103978049
sg222
F0.0
sg223
F11.6427471384
ssg227
(dp258
g229
F4.41583533572e-06
ssg51
(dp259
g234
F0.0345117294903
sg235
F0.0
ssg239
(dp260
g241
F99.1146852282
sg242
F0.119408607923
sg243
F0.0
sg244
F0.00024
sg245
F0.0
ssbsg91
g0
(g1
g2
(dp261
g93
F2.2799248874
sg94
F114.510490019
sg95
F1.89771901209
sg96
I1
sg97
F290.25
sg98
(lp262
(lp263
I0
aI0
aI0
aF2.2799248874
aa(lp264
F290.25
aI0
aI0
aF2.2799248874
aastp265
Rp266
(dp267
g93
F2.2799248874
sg95
F1.89771901209
sg96
I1
sg97
F290.25
sg94
F114.510490019
sg98
(lp268
(lp269
I0
aI0
aI0
aF2.2799248874
aa(lp270
F290.25
aI0
aI0
aF2.2799248874
aasbsg108
g0
(g1
g2
(dp271
g110
F0.0
sg111
g112
sg113
F0.5
stp272
Rp273
(dp274
g110
F0.0
sg111
g112
sg113
F0.5
sbsg117
F-75.0413649414
stp275
Rp276
(dp277
g20
(dp278
g143
(dp279
g145
F10.0
sg146
F42.0
sg147
F140.0
ssg151
(dp280
g153
F5e-05
sg154
F132.4579341637009
sg155
F2.0
ssg30
(dp281
g160
F54.4
sg161
F-104.0
sg162
F2.5
sssg43
(dp282
g173
(dp283
g175
F1.0
sg176
F1.0
sg177
F0.0
sg178
F0.002
sg179
F-2.1899738592999967
sg180
F5.09733585163e-05
sg181
F0.002
sg182
F1.0
sg183
F17.0
sg184
F155.67
ssg68
(dp284
g189
F-88.5366550238
sg190
F7.620207783345154e-05
ssg194
(dp285
g196
F11.9
sg201
F0.00643
sg200
F0.193
sg199
F0.000140956438043
sg197
F154.9
sg198
F33.1
ssg58
(dp286
g206
F-52.0967985869
sg207
F0.0898600246397
sg208
F0.0
sg209
F-59.7867409796
sg210
F32.7885075379
ssg214
(dp287
g216
F4.60717910591e-06
ssg75
(dp288
g221
F0.0131103978049
sg222
F0.0
sg223
F11.6427471384
ssg227
(dp289
g229
F4.41583533572e-06
ssg51
(dp290
g234
F0.0345117294903
sg235
F0.0
ssg239
(dp291
g241
F99.1146852282
sg242
F0.119408607923
sg243
F0.0
sg244
F0.00024
sg245
F0.0
sssg8
(lp292
g141
asg91
(dp293
g93
F2.2799248874
sg95
F1.89771901209
sg96
I1
sg97
F290.25
sg94
F114.510490019
sg98
(lp294
(lp295
I0
aI0
aI0
aF2.2799248874
aa(lp296
F290.25
aI0
aI0
aF2.2799248874
aassg108
(dp297
g110
F0.0
sg111
g112
sg113
F0.5
ssg117
F-75.0413649414
sbsg112
g0
(g1
g2
(dp298
g8
(lp299
g10
(g14
S'B\x11rcL\x88B?'
p300
tp301
Rp302
asg20
g0
(g1
g2
(dp303
S'na'
p304
g0
(g1
g2
(dp305
S'i'
p306
F10.0
sS'e'
p307
F42.0
sS'o'
p308
F140.0
stp309
Rp310
(dp311
g306
F10.0
sg307
F42.0
sg308
F140.0
sbsS'ca'
p312
g0
(g1
g2
(dp313
S'i'
p314
F5e-05
sS'e'
p315
F132.4579341637009
sS'o'
p316
F2.0
stp317
Rp318
(dp319
g314
F5e-05
sg315
F132.4579341637009
sg316
F2.0
sbsg30
g0
(g1
g2
(dp320
S'i'
p321
F54.4
sS'e'
p322
F-104.0
sS'o'
p323
F2.5
stp324
Rp325
(dp326
g321
F54.4
sg322
F-104.0
sg323
F2.5
sbstp327
Rp328
(dp329
g304
(dp330
g306
F10.0
sg307
F42.0
sg308
F140.0
ssg312
(dp331
g314
F5e-05
sg315
F132.4579341637009
sg316
F2.0
ssg30
(dp332
g321
F54.4
sg322
F-104.0
sg323
F2.5
ssbsg43
g0
(g1
g2
(dp333
g173
g0
(g1
g2
(dp334
S'tau'
p335
F1.0
sS'caPmax'
p336
F1.0
sS'caPmin'
p337
F0.0
sS'caVhh'
p338
F0.002
sS'caVhmin'
p339
F-2.1899738592999967
sS'gpeak'
p340
F5.09733585163e-05
sS'caPh'
p341
F0.002
sS'caPk'
p342
F1.0
sS'k'
p343
F17.0
sS'caVhmax'
p344
F155.67
stp345
Rp346
(dp347
g335
F1.0
sg336
F1.0
sg337
F0.0
sg338
F0.002
sg339
F-2.1899738592999967
sg340
F5.09733585163e-05
sg341
F0.002
sg342
F1.0
sg343
F17.0
sg344
F155.67
sbsg68
g0
(g1
g2
(dp348
S'e'
p349
F-88.5366550238
sS'g'
p350
F5.404892936362239e-05
stp351
Rp352
(dp353
g349
F-88.5366550238
sg350
F5.404892936362239e-05
sbsg45
g0
(g1
g2
(dp354
S'gbar'
p355
F0.000447365630734
stp356
Rp357
(dp358
g355
F0.000447365630734
sbsg194
g0
(g1
g2
(dp359
S'aslope'
p360
F11.9
sS'ashift'
p361
F154.9
sS'bslope'
p362
F33.1
sS'gbar'
p363
F0.000140956438043
sS'bscale'
p364
F0.193
sS'ascale'
p365
F0.00643
stp366
Rp367
(dp368
g360
F11.9
sg365
F0.00643
sg364
F0.193
sg363
F0.000140956438043
sg361
F154.9
sg362
F33.1
sbsg58
g0
(g1
g2
(dp369
S'tq'
p370
F-52.0967985869
sS'gbar'
p371
F0.0898600246397
sS'sh'
p372
F0.0
sS'vhalfl'
p373
F-59.7867409796
sS'vhalfn'
p374
F32.7885075379
stp375
Rp376
(dp377
g370
F-52.0967985869
sg371
F0.0898600246397
sg372
F0.0
sg373
F-59.7867409796
sg374
F32.7885075379
sbsg214
g0
(g1
g2
(dp378
S'gcanbar'
p379
F4.60717910591e-06
stp380
Rp381
(dp382
g379
F4.60717910591e-06
sbsg75
g0
(g1
g2
(dp383
S'gbar'
p384
F0.0131103978049
sS'sh'
p385
F0.0
sS'vhalfn'
p386
F11.6427471384
stp387
Rp388
(dp389
g384
F0.0131103978049
sg385
F0.0
sg386
F11.6427471384
sbsg227
g0
(g1
g2
(dp390
S'gcalbar'
p391
F4.41583533572e-06
stp392
Rp393
(dp394
g391
F4.41583533572e-06
sbsg51
g0
(g1
g2
(dp395
S'gbar'
p396
F0.0345117294903
sS'sh'
p397
F0.0
stp398
Rp399
(dp400
g396
F0.0345117294903
sg397
F0.0
sbsg239
g0
(g1
g2
(dp401
S'taur'
p402
F99.1146852282
sS'depth'
p403
F0.119408607923
sS'kd'
p404
F0.0
sS'cainf'
p405
F0.00024
sS'kt'
p406
F0.0
stp407
Rp408
(dp409
g402
F99.1146852282
sg403
F0.119408607923
sg404
F0.0
sg405
F0.00024
sg406
F0.0
sbstp410
Rp411
(dp412
g173
(dp413
g335
F1.0
sg336
F1.0
sg337
F0.0
sg338
F0.002
sg339
F-2.1899738592999967
sg340
F5.09733585163e-05
sg341
F0.002
sg342
F1.0
sg343
F17.0
sg344
F155.67
ssg68
(dp414
g349
F-88.5366550238
sg350
F5.404892936362239e-05
ssg45
(dp415
g355
F0.000447365630734
ssg194
(dp416
g360
F11.9
sg365
F0.00643
sg364
F0.193
sg363
F0.000140956438043
sg361
F154.9
sg362
F33.1
ssg58
(dp417
g370
F-52.0967985869
sg371
F0.0898600246397
sg372
F0.0
sg373
F-59.7867409796
sg374
F32.7885075379
ssg214
(dp418
g379
F4.60717910591e-06
ssg75
(dp419
g384
F0.0131103978049
sg385
F0.0
sg386
F11.6427471384
ssg227
(dp420
g391
F4.41583533572e-06
ssg51
(dp421
g396
F0.0345117294903
sg397
F0.0
ssg239
(dp422
g402
F99.1146852282
sg403
F0.119408607923
sg404
F0.0
sg405
F0.00024
sg406
F0.0
ssbsg91
g0
(g1
g2
(dp423
g93
F28.2149102762
sg94
F114.510490019
sg95
F1.78829677463
sg96
I1
sg97
F48.4123467666
sg98
(lp424
(lp425
I0
aI0
aI0
aF28.2149102762
aa(lp426
I0
aF48.4123467666
aI0
aF28.2149102762
aastp427
Rp428
(dp429
g93
F28.2149102762
sg95
F1.78829677463
sg96
I1
sg97
F48.4123467666
sg94
F114.510490019
sg98
(lp430
(lp431
I0
aI0
aI0
aF28.2149102762
aa(lp432
I0
aF48.4123467666
aI0
aF28.2149102762
aasbsg108
g0
(g1
g2
(dp433
tp434
Rp435
sg117
F-75.0413649414
stp436
Rp437
(dp438
g20
(dp439
g304
(dp440
g306
F10.0
sg307
F42.0
sg308
F140.0
ssg312
(dp441
g314
F5e-05
sg315
F132.4579341637009
sg316
F2.0
ssg30
(dp442
g321
F54.4
sg322
F-104.0
sg323
F2.5
sssg43
(dp443
g173
(dp444
g335
F1.0
sg336
F1.0
sg337
F0.0
sg338
F0.002
sg339
F-2.1899738592999967
sg340
F5.09733585163e-05
sg341
F0.002
sg342
F1.0
sg343
F17.0
sg344
F155.67
ssg68
(dp445
g349
F-88.5366550238
sg350
F5.404892936362239e-05
ssg45
(dp446
g355
F0.000447365630734
ssg194
(dp447
g360
F11.9
sg365
F0.00643
sg364
F0.193
sg363
F0.000140956438043
sg361
F154.9
sg362
F33.1
ssg58
(dp448
g370
F-52.0967985869
sg371
F0.0898600246397
sg372
F0.0
sg373
F-59.7867409796
sg374
F32.7885075379
ssg214
(dp449
g379
F4.60717910591e-06
ssg75
(dp450
g384
F0.0131103978049
sg385
F0.0
sg386
F11.6427471384
ssg227
(dp451
g391
F4.41583533572e-06
ssg51
(dp452
g396
F0.0345117294903
sg397
F0.0
ssg239
(dp453
g402
F99.1146852282
sg403
F0.119408607923
sg404
F0.0
sg405
F0.00024
sg406
F0.0
sssg8
(lp454
g302
asg91
(dp455
g93
F28.2149102762
sg95
F1.78829677463
sg96
I1
sg97
F48.4123467666
sg94
F114.510490019
sg98
(lp456
(lp457
I0
aI0
aI0
aF28.2149102762
aa(lp458
I0
aF48.4123467666
aI0
aF28.2149102762
aassg108
(dp459
sg117
F-75.0413649414
sbsS'Adend1'
p460
g0
(g1
g2
(dp461
g8
(lp462
g10
(g14
S'kI\x7f\xe0F\x94K?'
p463
tp464
Rp465
asg20
g0
(g1
g2
(dp466
S'na'
p467
g0
(g1
g2
(dp468
S'i'
p469
F10.0
sS'e'
p470
F42.0
sS'o'
p471
F140.0
stp472
Rp473
(dp474
g469
F10.0
sg470
F42.0
sg471
F140.0
sbsS'ca'
p475
g0
(g1
g2
(dp476
S'i'
p477
F5e-05
sS'e'
p478
F132.4579341637009
sS'o'
p479
F2.0
stp480
Rp481
(dp482
g477
F5e-05
sg478
F132.4579341637009
sg479
F2.0
sbsg30
g0
(g1
g2
(dp483
S'i'
p484
F54.4
sS'e'
p485
F-104.0
sS'o'
p486
F2.5
stp487
Rp488
(dp489
g484
F54.4
sg485
F-104.0
sg486
F2.5
sbstp490
Rp491
(dp492
g467
(dp493
g469
F10.0
sg470
F42.0
sg471
F140.0
ssg475
(dp494
g477
F5e-05
sg478
F132.4579341637009
sg479
F2.0
ssg30
(dp495
g484
F54.4
sg485
F-104.0
sg486
F2.5
ssbsg43
g0
(g1
g2
(dp496
g173
g0
(g1
g2
(dp497
S'tau'
p498
F1.0
sS'caPmax'
p499
F1.0
sS'caPmin'
p500
F0.0
sS'caVhh'
p501
F0.002
sS'caVhmin'
p502
F-2.1899738592999967
sS'gpeak'
p503
F5.09733585163e-05
sS'caPh'
p504
F0.002
sS'caPk'
p505
F1.0
sS'k'
p506
F17.0
sS'caVhmax'
p507
F155.67
stp508
Rp509
(dp510
g498
F1.0
sg499
F1.0
sg500
F0.0
sg501
F0.002
sg502
F-2.1899738592999967
sg503
F5.09733585163e-05
sg504
F0.002
sg505
F1.0
sg506
F17.0
sg507
F155.67
sbsg68
g0
(g1
g2
(dp511
S'e'
p512
F-88.5366550238
sS'g'
p513
F9.30129299683914e-05
stp514
Rp515
(dp516
g512
F-88.5366550238
sg513
F9.30129299683914e-05
sbsg194
g0
(g1
g2
(dp517
S'aslope'
p518
F11.9
sS'ashift'
p519
F154.9
sS'bslope'
p520
F33.1
sS'gbar'
p521
F0.0009508884978406061
sS'bscale'
p522
F0.193
sS'ascale'
p523
F0.00643
stp524
Rp525
(dp526
g518
F11.9
sg523
F0.00643
sg522
F0.193
sg521
F0.0009508884978406061
sg519
F154.9
sg520
F33.1
sbsg58
g0
(g1
g2
(dp527
S'tq'
p528
F-52.0967985869
sS'gbar'
p529
F0.0898600246397
sS'sh'
p530
F0.0
sS'vhalfl'
p531
F-59.7867409796
sS'vhalfn'
p532
F32.7885075379
stp533
Rp534
(dp535
g528
F-52.0967985869
sg529
F0.0898600246397
sg530
F0.0
sg531
F-59.7867409796
sg532
F32.7885075379
sbsg214
g0
(g1
g2
(dp536
S'gcanbar'
p537
F4.60717910591e-06
stp538
Rp539
(dp540
g537
F4.60717910591e-06
sbsg75
g0
(g1
g2
(dp541
S'gbar'
p542
F0.0131103978049
sS'sh'
p543
F0.0
sS'vhalfn'
p544
F11.6427471384
stp545
Rp546
(dp547
g542
F0.0131103978049
sg543
F0.0
sg544
F11.6427471384
sbsg227
g0
(g1
g2
(dp548
S'gcalbar'
p549
F4.41583533572e-06
stp550
Rp551
(dp552
g549
F4.41583533572e-06
sbsg51
g0
(g1
g2
(dp553
S'gbar'
p554
F0.0345117294903
sS'sh'
p555
F0.0
stp556
Rp557
(dp558
g554
F0.0345117294903
sg555
F0.0
sbsg239
g0
(g1
g2
(dp559
S'taur'
p560
F99.1146852282
sS'depth'
p561
F0.119408607923
sS'kd'
p562
F0.0
sS'cainf'
p563
F0.00024
sS'kt'
p564
F0.0
stp565
Rp566
(dp567
g560
F99.1146852282
sg561
F0.119408607923
sg562
F0.0
sg563
F0.00024
sg564
F0.0
sbstp568
Rp569
(dp570
g173
(dp571
g498
F1.0
sg499
F1.0
sg500
F0.0
sg501
F0.002
sg502
F-2.1899738592999967
sg503
F5.09733585163e-05
sg504
F0.002
sg505
F1.0
sg506
F17.0
sg507
F155.67
ssg68
(dp572
g512
F-88.5366550238
sg513
F9.30129299683914e-05
ssg194
(dp573
g518
F11.9
sg523
F0.00643
sg522
F0.193
sg521
F0.0009508884978406061
sg519
F154.9
sg520
F33.1
ssg58
(dp574
g528
F-52.0967985869
sg529
F0.0898600246397
sg530
F0.0
sg531
F-59.7867409796
sg532
F32.7885075379
ssg214
(dp575
g537
F4.60717910591e-06
ssg75
(dp576
g542
F0.0131103978049
sg543
F0.0
sg544
F11.6427471384
ssg227
(dp577
g549
F4.41583533572e-06
ssg51
(dp578
g554
F0.0345117294903
sg555
F0.0
ssg239
(dp579
g560
F99.1146852282
sg561
F0.119408607923
sg562
F0.0
sg563
F0.00024
sg564
F0.0
ssbsg91
g0
(g1
g2
(dp580
g93
F1.5831889597
sg94
F114.510490019
sg95
F1.03418636866
sg96
I1
sg97
F290.25
sg98
(lp581
(lp582
I0
aF48.4123467666
aI0
aF1.5831889597
aa(lp583
I0
aF338.6623467666
aI0
aF1.5831889597
aastp584
Rp585
(dp586
g93
F1.5831889597
sg95
F1.03418636866
sg96
I1
sg97
F290.25
sg94
F114.510490019
sg98
(lp587
(lp588
I0
aF48.4123467666
aI0
aF1.5831889597
aa(lp589
I0
aF338.6623467666
aI0
aF1.5831889597
aasbsg108
g0
(g1
g2
(dp590
g110
F0.0
sg111
g112
sg113
F1.0
stp591
Rp592
(dp593
g110
F0.0
sg111
g112
sg113
F1.0
sbsg117
F-75.0413649414
stp594
Rp595
(dp596
g20
(dp597
g467
(dp598
g469
F10.0
sg470
F42.0
sg471
F140.0
ssg475
(dp599
g477
F5e-05
sg478
F132.4579341637009
sg479
F2.0
ssg30
(dp600
g484
F54.4
sg485
F-104.0
sg486
F2.5
sssg43
(dp601
g173
(dp602
g498
F1.0
sg499
F1.0
sg500
F0.0
sg501
F0.002
sg502
F-2.1899738592999967
sg503
F5.09733585163e-05
sg504
F0.002
sg505
F1.0
sg506
F17.0
sg507
F155.67
ssg68
(dp603
g512
F-88.5366550238
sg513
F9.30129299683914e-05
ssg194
(dp604
g518
F11.9
sg523
F0.00643
sg522
F0.193
sg521
F0.0009508884978406061
sg519
F154.9
sg520
F33.1
ssg58
(dp605
g528
F-52.0967985869
sg529
F0.0898600246397
sg530
F0.0
sg531
F-59.7867409796
sg532
F32.7885075379
ssg214
(dp606
g537
F4.60717910591e-06
ssg75
(dp607
g542
F0.0131103978049
sg543
F0.0
sg544
F11.6427471384
ssg227
(dp608
g549
F4.41583533572e-06
ssg51
(dp609
g554
F0.0345117294903
sg555
F0.0
ssg239
(dp610
g560
F99.1146852282
sg561
F0.119408607923
sg562
F0.0
sg563
F0.00024
sg564
F0.0
sssg8
(lp611
g465
asg91
(dp612
g93
F1.5831889597
sg95
F1.03418636866
sg96
I1
sg97
F290.25
sg94
F114.510490019
sg98
(lp613
(lp614
I0
aF48.4123467666
aI0
aF1.5831889597
aa(lp615
I0
aF338.6623467666
aI0
aF1.5831889597
aassg108
(dp616
g110
F0.0
sg111
g112
sg113
F1.0
ssg117
F-75.0413649414
sbsS'Adend2'
p617
g0
(g1
g2
(dp618
g8
(lp619
g10
(g14
S'\x96G\x8b\xfa\xa5\x84]?'
p620
tp621
Rp622
asg20
g0
(g1
g2
(dp623
S'na'
p624
g0
(g1
g2
(dp625
S'i'
p626
F10.0
sS'e'
p627
F42.0
sS'o'
p628
F140.0
stp629
Rp630
(dp631
g626
F10.0
sg627
F42.0
sg628
F140.0
sbsS'ca'
p632
g0
(g1
g2
(dp633
S'i'
p634
F5e-05
sS'e'
p635
F132.4579341637009
sS'o'
p636
F2.0
stp637
Rp638
(dp639
g634
F5e-05
sg635
F132.4579341637009
sg636
F2.0
sbsg30
g0
(g1
g2
(dp640
S'i'
p641
F54.4
sS'e'
p642
F-104.0
sS'o'
p643
F2.5
stp644
Rp645
(dp646
g641
F54.4
sg642
F-104.0
sg643
F2.5
sbstp647
Rp648
(dp649
g624
(dp650
g626
F10.0
sg627
F42.0
sg628
F140.0
ssg632
(dp651
g634
F5e-05
sg635
F132.4579341637009
sg636
F2.0
ssg30
(dp652
g641
F54.4
sg642
F-104.0
sg643
F2.5
ssbsg43
g0
(g1
g2
(dp653
g173
g0
(g1
g2
(dp654
S'tau'
p655
F1.0
sS'caPmax'
p656
F1.0
sS'caPmin'
p657
F0.0
sS'caVhh'
p658
F0.002
sS'caVhmin'
p659
F-2.1899738592999967
sS'gpeak'
p660
F5.09733585163e-05
sS'caPh'
p661
F0.002
sS'caPk'
p662
F1.0
sS'k'
p663
F17.0
sS'caVhmax'
p664
F155.67
stp665
Rp666
(dp667
g655
F1.0
sg656
F1.0
sg657
F0.0
sg658
F0.002
sg659
F-2.1899738592999967
sg660
F5.09733585163e-05
sg661
F0.002
sg662
F1.0
sg663
F17.0
sg664
F155.67
sbsg68
g0
(g1
g2
(dp668
S'e'
p669
F-88.5366550238
sS'g'
p670
F9.30129299683914e-05
stp671
Rp672
(dp673
g669
F-88.5366550238
sg670
F9.30129299683914e-05
sbsg194
g0
(g1
g2
(dp674
S'aslope'
p675
F11.9
sS'ashift'
p676
F154.9
sS'bslope'
p677
F33.1
sS'gbar'
p678
F0.00565
sS'bscale'
p679
F0.193
sS'ascale'
p680
F0.00643
stp681
Rp682
(dp683
g675
F11.9
sg680
F0.00643
sg679
F0.193
sg678
F0.00565
sg676
F154.9
sg677
F33.1
sbsg58
g0
(g1
g2
(dp684
S'tq'
p685
F-52.0967985869
sS'gbar'
p686
F0.0898600246397
sS'sh'
p687
F0.0
sS'vhalfl'
p688
F-59.7867409796
sS'vhalfn'
p689
F32.7885075379
stp690
Rp691
(dp692
g685
F-52.0967985869
sg686
F0.0898600246397
sg687
F0.0
sg688
F-59.7867409796
sg689
F32.7885075379
sbsg214
g0
(g1
g2
(dp693
S'gcanbar'
p694
F4.60717910591e-06
stp695
Rp696
(dp697
g694
F4.60717910591e-06
sbsg75
g0
(g1
g2
(dp698
S'gbar'
p699
F0.0131103978049
sS'sh'
p700
F0.0
sS'vhalfn'
p701
F11.6427471384
stp702
Rp703
(dp704
g699
F0.0131103978049
sg700
F0.0
sg701
F11.6427471384
sbsg227
g0
(g1
g2
(dp705
S'gcalbar'
p706
F4.41583533572e-06
stp707
Rp708
(dp709
g706
F4.41583533572e-06
sbsg51
g0
(g1
g2
(dp710
S'gbar'
p711
F0.0345117294903
sS'sh'
p712
F0.0
stp713
Rp714
(dp715
g711
F0.0345117294903
sg712
F0.0
sbsg239
g0
(g1
g2
(dp716
S'taur'
p717
F99.1146852282
sS'depth'
p718
F0.119408607923
sS'kd'
p719
F0.0
sS'cainf'
p720
F0.00024
sS'kt'
p721
F0.0
stp722
Rp723
(dp724
g717
F99.1146852282
sg718
F0.119408607923
sg719
F0.0
sg720
F0.00024
sg721
F0.0
sbstp725
Rp726
(dp727
g173
(dp728
g655
F1.0
sg656
F1.0
sg657
F0.0
sg658
F0.002
sg659
F-2.1899738592999967
sg660
F5.09733585163e-05
sg661
F0.002
sg662
F1.0
sg663
F17.0
sg664
F155.67
ssg68
(dp729
g669
F-88.5366550238
sg670
F9.30129299683914e-05
ssg194
(dp730
g675
F11.9
sg680
F0.00643
sg679
F0.193
sg678
F0.00565
sg676
F154.9
sg677
F33.1
ssg58
(dp731
g685
F-52.0967985869
sg686
F0.0898600246397
sg687
F0.0
sg688
F-59.7867409796
sg689
F32.7885075379
ssg214
(dp732
g694
F4.60717910591e-06
ssg75
(dp733
g699
F0.0131103978049
sg700
F0.0
sg701
F11.6427471384
ssg227
(dp734
g706
F4.41583533572e-06
ssg51
(dp735
g711
F0.0345117294903
sg712
F0.0
ssg239
(dp736
g717
F99.1146852282
sg718
F0.119408607923
sg719
F0.0
sg720
F0.00024
sg721
F0.0
ssbsg91
g0
(g1
g2
(dp737
g93
F1.5831889597
sg94
F114.510490019
sg95
F1.03418636866
sg96
I1
sg97
F290.25
sg98
(lp738
(lp739
I0
aF338.6623467666
aI0
aF1.5831889597
aa(lp740
I0
aF628.9123467666
aI0
aF1.5831889597
aastp741
Rp742
(dp743
g93
F1.5831889597
sg95
F1.03418636866
sg96
I1
sg97
F290.25
sg94
F114.510490019
sg98
(lp744
(lp745
I0
aF338.6623467666
aI0
aF1.5831889597
aa(lp746
I0
aF628.9123467666
aI0
aF1.5831889597
aasbsg108
g0
(g1
g2
(dp747
g110
F0.0
sg111
g460
sg113
F1.0
stp748
Rp749
(dp750
g110
F0.0
sg111
g460
sg113
F1.0
sbsg117
F-75.0413649414
stp751
Rp752
(dp753
g20
(dp754
g624
(dp755
g626
F10.0
sg627
F42.0
sg628
F140.0
ssg632
(dp756
g634
F5e-05
sg635
F132.4579341637009
sg636
F2.0
ssg30
(dp757
g641
F54.4
sg642
F-104.0
sg643
F2.5
sssg43
(dp758
g173
(dp759
g655
F1.0
sg656
F1.0
sg657
F0.0
sg658
F0.002
sg659
F-2.1899738592999967
sg660
F5.09733585163e-05
sg661
F0.002
sg662
F1.0
sg663
F17.0
sg664
F155.67
ssg68
(dp760
g669
F-88.5366550238
sg670
F9.30129299683914e-05
ssg194
(dp761
g675
F11.9
sg680
F0.00643
sg679
F0.193
sg678
F0.00565
sg676
F154.9
sg677
F33.1
ssg58
(dp762
g685
F-52.0967985869
sg686
F0.0898600246397
sg687
F0.0
sg688
F-59.7867409796
sg689
F32.7885075379
ssg214
(dp763
g694
F4.60717910591e-06
ssg75
(dp764
g699
F0.0131103978049
sg700
F0.0
sg701
F11.6427471384
ssg227
(dp765
g706
F4.41583533572e-06
ssg51
(dp766
g711
F0.0345117294903
sg712
F0.0
ssg239
(dp767
g717
F99.1146852282
sg718
F0.119408607923
sg719
F0.0
sg720
F0.00024
sg721
F0.0
sssg8
(lp768
g622
asg91
(dp769
g93
F1.5831889597
sg95
F1.03418636866
sg96
I1
sg97
F290.25
sg94
F114.510490019
sg98
(lp770
(lp771
I0
aF338.6623467666
aI0
aF1.5831889597
aa(lp772
I0
aF628.9123467666
aI0
aF1.5831889597
aassg108
(dp773
g110
F0.0
sg111
g460
sg113
F1.0
ssg117
F-75.0413649414
sbsS'Adend3'
p774
g0
(g1
g2
(dp775
g8
(lp776
g10
(g14
S'h<\xc41\xe3\xe9g?'
p777
tp778
Rp779
asg20
g0
(g1
g2
(dp780
S'na'
p781
g0
(g1
g2
(dp782
S'i'
p783
F10.0
sS'e'
p784
F42.0
sS'o'
p785
F140.0
stp786
Rp787
(dp788
g783
F10.0
sg784
F42.0
sg785
F140.0
sbsS'ca'
p789
g0
(g1
g2
(dp790
S'i'
p791
F5e-05
sS'e'
p792
F132.4579341637009
sS'o'
p793
F2.0
stp794
Rp795
(dp796
g791
F5e-05
sg792
F132.4579341637009
sg793
F2.0
sbsg30
g0
(g1
g2
(dp797
S'i'
p798
F54.4
sS'e'
p799
F-104.0
sS'o'
p800
F2.5
stp801
Rp802
(dp803
g798
F54.4
sg799
F-104.0
sg800
F2.5
sbstp804
Rp805
(dp806
g781
(dp807
g783
F10.0
sg784
F42.0
sg785
F140.0
ssg789
(dp808
g791
F5e-05
sg792
F132.4579341637009
sg793
F2.0
ssg30
(dp809
g798
F54.4
sg799
F-104.0
sg800
F2.5
ssbsg43
g0
(g1
g2
(dp810
g173
g0
(g1
g2
(dp811
S'tau'
p812
F1.0
sS'caPmax'
p813
F1.0
sS'caPmin'
p814
F0.0
sS'caVhh'
p815
F0.002
sS'caVhmin'
p816
F-2.1899738592999967
sS'gpeak'
p817
F5.09733585163e-05
sS'caPh'
p818
F0.002
sS'caPk'
p819
F1.0
sS'k'
p820
F17.0
sS'caVhmax'
p821
F155.67
stp822
Rp823
(dp824
g812
F1.0
sg813
F1.0
sg814
F0.0
sg815
F0.002
sg816
F-2.1899738592999967
sg817
F5.09733585163e-05
sg818
F0.002
sg819
F1.0
sg820
F17.0
sg821
F155.67
sbsg68
g0
(g1
g2
(dp825
S'e'
p826
F-88.5366550238
sS'g'
p827
F9.30129299683914e-05
stp828
Rp829
(dp830
g826
F-88.5366550238
sg827
F9.30129299683914e-05
sbsg194
g0
(g1
g2
(dp831
S'aslope'
p832
F11.9
sS'ashift'
p833
F154.9
sS'bslope'
p834
F33.1
sS'gbar'
p835
F0.00565
sS'bscale'
p836
F0.193
sS'ascale'
p837
F0.00643
stp838
Rp839
(dp840
g832
F11.9
sg837
F0.00643
sg836
F0.193
sg835
F0.00565
sg833
F154.9
sg834
F33.1
sbsg58
g0
(g1
g2
(dp841
S'tq'
p842
F-52.0967985869
sS'gbar'
p843
F0.0898600246397
sS'sh'
p844
F0.0
sS'vhalfl'
p845
F-59.7867409796
sS'vhalfn'
p846
F32.7885075379
stp847
Rp848
(dp849
g842
F-52.0967985869
sg843
F0.0898600246397
sg844
F0.0
sg845
F-59.7867409796
sg846
F32.7885075379
sbsg214
g0
(g1
g2
(dp850
S'gcanbar'
p851
F4.60717910591e-06
stp852
Rp853
(dp854
g851
F4.60717910591e-06
sbsg75
g0
(g1
g2
(dp855
S'gbar'
p856
F0.0131103978049
sS'sh'
p857
F0.0
sS'vhalfn'
p858
F11.6427471384
stp859
Rp860
(dp861
g856
F0.0131103978049
sg857
F0.0
sg858
F11.6427471384
sbsg227
g0
(g1
g2
(dp862
S'gcalbar'
p863
F4.41583533572e-06
stp864
Rp865
(dp866
g863
F4.41583533572e-06
sbsg51
g0
(g1
g2
(dp867
S'gbar'
p868
F0.0345117294903
sS'sh'
p869
F0.0
stp870
Rp871
(dp872
g868
F0.0345117294903
sg869
F0.0
sbsg239
g0
(g1
g2
(dp873
S'taur'
p874
F99.1146852282
sS'depth'
p875
F0.119408607923
sS'kd'
p876
F0.0
sS'cainf'
p877
F0.00024
sS'kt'
p878
F0.0
stp879
Rp880
(dp881
g874
F99.1146852282
sg875
F0.119408607923
sg876
F0.0
sg877
F0.00024
sg878
F0.0
sbstp882
Rp883
(dp884
g173
(dp885
g812
F1.0
sg813
F1.0
sg814
F0.0
sg815
F0.002
sg816
F-2.1899738592999967
sg817
F5.09733585163e-05
sg818
F0.002
sg819
F1.0
sg820
F17.0
sg821
F155.67
ssg68
(dp886
g826
F-88.5366550238
sg827
F9.30129299683914e-05
ssg194
(dp887
g832
F11.9
sg837
F0.00643
sg836
F0.193
sg835
F0.00565
sg833
F154.9
sg834
F33.1
ssg58
(dp888
g842
F-52.0967985869
sg843
F0.0898600246397
sg844
F0.0
sg845
F-59.7867409796
sg846
F32.7885075379
ssg214
(dp889
g851
F4.60717910591e-06
ssg75
(dp890
g856
F0.0131103978049
sg857
F0.0
sg858
F11.6427471384
ssg227
(dp891
g863
F4.41583533572e-06
ssg51
(dp892
g868
F0.0345117294903
sg869
F0.0
ssg239
(dp893
g874
F99.1146852282
sg875
F0.119408607923
sg876
F0.0
sg877
F0.00024
sg878
F0.0
ssbsg91
g0
(g1
g2
(dp894
g93
F1.5831889597
sg94
F114.510490019
sg95
F1.03418636866
sg96
I1
sg97
F290.25
sg98
(lp895
(lp896
I0
aF628.9123467666
aI0
aF1.5831889597
aa(lp897
I0
aF919.1623467666
aI0
aF1.5831889597
aastp898
Rp899
(dp900
g93
F1.5831889597
sg95
F1.03418636866
sg96
I1
sg97
F290.25
sg94
F114.510490019
sg98
(lp901
(lp902
I0
aF628.9123467666
aI0
aF1.5831889597
aa(lp903
I0
aF919.1623467666
aI0
aF1.5831889597
aasbsg108
g0
(g1
g2
(dp904
g110
F0.0
sg111
g617
sg113
F1.0
stp905
Rp906
(dp907
g110
F0.0
sg111
g617
sg113
F1.0
sbsg117
F-75.0413649414
stp908
Rp909
(dp910
g20
(dp911
g781
(dp912
g783
F10.0
sg784
F42.0
sg785
F140.0
ssg789
(dp913
g791
F5e-05
sg792
F132.4579341637009
sg793
F2.0
ssg30
(dp914
g798
F54.4
sg799
F-104.0
sg800
F2.5
sssg43
(dp915
g173
(dp916
g812
F1.0
sg813
F1.0
sg814
F0.0
sg815
F0.002
sg816
F-2.1899738592999967
sg817
F5.09733585163e-05
sg818
F0.002
sg819
F1.0
sg820
F17.0
sg821
F155.67
ssg68
(dp917
g826
F-88.5366550238
sg827
F9.30129299683914e-05
ssg194
(dp918
g832
F11.9
sg837
F0.00643
sg836
F0.193
sg835
F0.00565
sg833
F154.9
sg834
F33.1
ssg58
(dp919
g842
F-52.0967985869
sg843
F0.0898600246397
sg844
F0.0
sg845
F-59.7867409796
sg846
F32.7885075379
ssg214
(dp920
g851
F4.60717910591e-06
ssg75
(dp921
g856
F0.0131103978049
sg857
F0.0
sg858
F11.6427471384
ssg227
(dp922
g863
F4.41583533572e-06
ssg51
(dp923
g868
F0.0345117294903
sg869
F0.0
ssg239
(dp924
g874
F99.1146852282
sg875
F0.119408607923
sg876
F0.0
sg877
F0.00024
sg878
F0.0
sssg8
(lp925
g779
asg91
(dp926
g93
F1.5831889597
sg95
F1.03418636866
sg96
I1
sg97
F290.25
sg94
F114.510490019
sg98
(lp927
(lp928
I0
aF628.9123467666
aI0
aF1.5831889597
aa(lp929
I0
aF919.1623467666
aI0
aF1.5831889597
aassg108
(dp930
g110
F0.0
sg111
g617
sg113
F1.0
ssg117
F-75.0413649414
sbstp931
Rp932
(dp933
g112
(dp934
g20
(dp935
g304
(dp936
g306
F10.0
sg307
F42.0
sg308
F140.0
ssg312
(dp937
g314
F5e-05
sg315
F132.4579341637009
sg316
F2.0
ssg30
(dp938
g321
F54.4
sg322
F-104.0
sg323
F2.5
sssg43
(dp939
g173
(dp940
g335
F1.0
sg336
F1.0
sg337
F0.0
sg338
F0.002
sg339
F-2.1899738592999967
sg340
F5.09733585163e-05
sg341
F0.002
sg342
F1.0
sg343
F17.0
sg344
F155.67
ssg68
(dp941
g349
F-88.5366550238
sg350
F5.404892936362239e-05
ssg45
(dp942
g355
F0.000447365630734
ssg194
(dp943
g360
F11.9
sg365
F0.00643
sg364
F0.193
sg363
F0.000140956438043
sg361
F154.9
sg362
F33.1
ssg58
(dp944
g370
F-52.0967985869
sg371
F0.0898600246397
sg372
F0.0
sg373
F-59.7867409796
sg374
F32.7885075379
ssg214
(dp945
g379
F4.60717910591e-06
ssg75
(dp946
g384
F0.0131103978049
sg385
F0.0
sg386
F11.6427471384
ssg227
(dp947
g391
F4.41583533572e-06
ssg51
(dp948
g396
F0.0345117294903
sg397
F0.0
ssg239
(dp949
g402
F99.1146852282
sg403
F0.119408607923
sg404
F0.0
sg405
F0.00024
sg406
F0.0
sssg8
(lp950
g302
asg91
(dp951
g93
F28.2149102762
sg95
F1.78829677463
sg96
I1
sg97
F48.4123467666
sg94
F114.510490019
sg98
(lp952
(lp953
I0
aI0
aI0
aF28.2149102762
aa(lp954
I0
aF48.4123467666
aI0
aF28.2149102762
aassg108
(dp955
sg117
F-75.0413649414
ssg460
(dp956
g20
(dp957
g467
(dp958
g469
F10.0
sg470
F42.0
sg471
F140.0
ssg475
(dp959
g477
F5e-05
sg478
F132.4579341637009
sg479
F2.0
ssg30
(dp960
g484
F54.4
sg485
F-104.0
sg486
F2.5
sssg43
(dp961
g173
(dp962
g498
F1.0
sg499
F1.0
sg500
F0.0
sg501
F0.002
sg502
F-2.1899738592999967
sg503
F5.09733585163e-05
sg504
F0.002
sg505
F1.0
sg506
F17.0
sg507
F155.67
ssg68
(dp963
g512
F-88.5366550238
sg513
F9.30129299683914e-05
ssg194
(dp964
g518
F11.9
sg523
F0.00643
sg522
F0.193
sg521
F0.0009508884978406061
sg519
F154.9
sg520
F33.1
ssg58
(dp965
g528
F-52.0967985869
sg529
F0.0898600246397
sg530
F0.0
sg531
F-59.7867409796
sg532
F32.7885075379
ssg214
(dp966
g537
F4.60717910591e-06
ssg75
(dp967
g542
F0.0131103978049
sg543
F0.0
sg544
F11.6427471384
ssg227
(dp968
g549
F4.41583533572e-06
ssg51
(dp969
g554
F0.0345117294903
sg555
F0.0
ssg239
(dp970
g560
F99.1146852282
sg561
F0.119408607923
sg562
F0.0
sg563
F0.00024
sg564
F0.0
sssg8
(lp971
g465
asg91
(dp972
g93
F1.5831889597
sg95
F1.03418636866
sg96
I1
sg97
F290.25
sg94
F114.510490019
sg98
(lp973
(lp974
I0
aF48.4123467666
aI0
aF1.5831889597
aa(lp975
I0
aF338.6623467666
aI0
aF1.5831889597
aassg108
(dp976
g110
F0.0
sg111
g112
sg113
F1.0
ssg117
F-75.0413649414
ssg617
(dp977
g20
(dp978
g624
(dp979
g626
F10.0
sg627
F42.0
sg628
F140.0
ssg632
(dp980
g634
F5e-05
sg635
F132.4579341637009
sg636
F2.0
ssg30
(dp981
g641
F54.4
sg642
F-104.0
sg643
F2.5
sssg43
(dp982
g173
(dp983
g655
F1.0
sg656
F1.0
sg657
F0.0
sg658
F0.002
sg659
F-2.1899738592999967
sg660
F5.09733585163e-05
sg661
F0.002
sg662
F1.0
sg663
F17.0
sg664
F155.67
ssg68
(dp984
g669
F-88.5366550238
sg670
F9.30129299683914e-05
ssg194
(dp985
g675
F11.9
sg680
F0.00643
sg679
F0.193
sg678
F0.00565
sg676
F154.9
sg677
F33.1
ssg58
(dp986
g685
F-52.0967985869
sg686
F0.0898600246397
sg687
F0.0
sg688
F-59.7867409796
sg689
F32.7885075379
ssg214
(dp987
g694
F4.60717910591e-06
ssg75
(dp988
g699
F0.0131103978049
sg700
F0.0
sg701
F11.6427471384
ssg227
(dp989
g706
F4.41583533572e-06
ssg51
(dp990
g711
F0.0345117294903
sg712
F0.0
ssg239
(dp991
g717
F99.1146852282
sg718
F0.119408607923
sg719
F0.0
sg720
F0.00024
sg721
F0.0
sssg8
(lp992
g622
asg91
(dp993
g93
F1.5831889597
sg95
F1.03418636866
sg96
I1
sg97
F290.25
sg94
F114.510490019
sg98
(lp994
(lp995
I0
aF338.6623467666
aI0
aF1.5831889597
aa(lp996
I0
aF628.9123467666
aI0
aF1.5831889597
aassg108
(dp997
g110
F0.0
sg111
g460
sg113
F1.0
ssg117
F-75.0413649414
ssg774
(dp998
g20
(dp999
g781
(dp1000
g783
F10.0
sg784
F42.0
sg785
F140.0
ssg789
(dp1001
g791
F5e-05
sg792
F132.4579341637009
sg793
F2.0
ssg30
(dp1002
g798
F54.4
sg799
F-104.0
sg800
F2.5
sssg43
(dp1003
g173
(dp1004
g812
F1.0
sg813
F1.0
sg814
F0.0
sg815
F0.002
sg816
F-2.1899738592999967
sg817
F5.09733585163e-05
sg818
F0.002
sg819
F1.0
sg820
F17.0
sg821
F155.67
ssg68
(dp1005
g826
F-88.5366550238
sg827
F9.30129299683914e-05
ssg194
(dp1006
g832
F11.9
sg837
F0.00643
sg836
F0.193
sg835
F0.00565
sg833
F154.9
sg834
F33.1
ssg58
(dp1007
g842
F-52.0967985869
sg843
F0.0898600246397
sg844
F0.0
sg845
F-59.7867409796
sg846
F32.7885075379
ssg214
(dp1008
g851
F4.60717910591e-06
ssg75
(dp1009
g856
F0.0131103978049
sg857
F0.0
sg858
F11.6427471384
ssg227
(dp1010
g863
F4.41583533572e-06
ssg51
(dp1011
g868
F0.0345117294903
sg869
F0.0
ssg239
(dp1012
g874
F99.1146852282
sg875
F0.119408607923
sg876
F0.0
sg877
F0.00024
sg878
F0.0
sssg8
(lp1013
g779
asg91
(dp1014
g93
F1.5831889597
sg95
F1.03418636866
sg96
I1
sg97
F290.25
sg94
F114.510490019
sg98
(lp1015
(lp1016
I0
aF628.9123467666
aI0
aF1.5831889597
aa(lp1017
I0
aF919.1623467666
aI0
aF1.5831889597
aassg108
(dp1018
g110
F0.0
sg111
g617
sg113
F1.0
ssg117
F-75.0413649414
ssg6
(dp1019
g20
(dp1020
g22
(dp1021
g24
F10.0
sg25
F42.0
sg26
F140.0
ssg30
(dp1022
g32
F54.4
sg33
F-104.0
sg34
F2.5
sssg43
(dp1023
g45
(dp1024
g47
F0.00894731261468
ssg51
(dp1025
g53
F0.1725586474515
sg54
F0.0
ssg58
(dp1026
g60
F-52.0967985869
sg61
F0.4493001231985
sg62
F0.0
sg63
F-59.7867409796
sg64
F32.7885075379
ssg68
(dp1027
g70
F-88.5366550238
sg71
F0.00025347188561059
ssg75
(dp1028
g77
F0.0655519890245
sg78
F0.0
sg79
F11.6427471384
sssg8
(lp1029
g19
asg91
(dp1030
g93
F1.40966286462
sg95
F1.01280903702
sg96
I1
sg97
F594.292937602
sg94
F114.510490019
sg98
(lp1031
(lp1032
I0
aI0
aI0
aF1.40966286462
aa(lp1033
I0
aF-594.292937602
aI0
aF1.40966286462
aassg108
(dp1034
g110
F0.0
sg111
g112
sg113
F0.0
ssg117
F-75.0413649414
ssg136
(dp1035
g20
(dp1036
g143
(dp1037
g145
F10.0
sg146
F42.0
sg147
F140.0
ssg151
(dp1038
g153
F5e-05
sg154
F132.4579341637009
sg155
F2.0
ssg30
(dp1039
g160
F54.4
sg161
F-104.0
sg162
F2.5
sssg43
(dp1040
g173
(dp1041
g175
F1.0
sg176
F1.0
sg177
F0.0
sg178
F0.002
sg179
F-2.1899738592999967
sg180
F5.09733585163e-05
sg181
F0.002
sg182
F1.0
sg183
F17.0
sg184
F155.67
ssg68
(dp1042
g189
F-88.5366550238
sg190
F7.620207783345154e-05
ssg194
(dp1043
g196
F11.9
sg201
F0.00643
sg200
F0.193
sg199
F0.000140956438043
sg197
F154.9
sg198
F33.1
ssg58
(dp1044
g206
F-52.0967985869
sg207
F0.0898600246397
sg208
F0.0
sg209
F-59.7867409796
sg210
F32.7885075379
ssg214
(dp1045
g216
F4.60717910591e-06
ssg75
(dp1046
g221
F0.0131103978049
sg222
F0.0
sg223
F11.6427471384
ssg227
(dp1047
g229
F4.41583533572e-06
ssg51
(dp1048
g234
F0.0345117294903
sg235
F0.0
ssg239
(dp1049
g241
F99.1146852282
sg242
F0.119408607923
sg243
F0.0
sg244
F0.00024
sg245
F0.0
sssg8
(lp1050
g141
asg91
(dp1051
g93
F2.2799248874
sg95
F1.89771901209
sg96
I1
sg97
F290.25
sg94
F114.510490019
sg98
(lp1052
(lp1053
I0
aI0
aI0
aF2.2799248874
aa(lp1054
F290.25
aI0
aI0
aF2.2799248874
aassg108
(dp1055
g110
F0.0
sg111
g112
sg113
F0.5
ssg117
F-75.0413649414
ssbsS'globals'
p1056
g0
(g1
g2
(dp1057
S'celsius'
p1058
F34.0
sS'v_init'
p1059
F-75.0413649414
sS'erev_ih'
p1060
F-37.0
stp1061
Rp1062
(dp1063
g1058
F34.0
sg1059
F-75.0413649414
sg1060
F-37.0
sbsS'secLists'
p1064
g0
(g1
g2
(dp1065
S'alldend'
p1066
(lp1067
g460
ag617
ag774
ag136
asS'apicdend'
p1068
(lp1069
g460
ag617
ag774
asS'spiny'
p1070
(lp1071
g460
ag617
ag774
ag136
asS'perisom'
p1072
(lp1073
g112
astp1074
Rp1075
(dp1076
g1066
(lp1077
g460
ag617
ag774
ag136
asg1068
(lp1078
g460
ag617
ag774
asg1070
(lp1079
g460
ag617
ag774
ag136
asg1072
(lp1080
g112
asbsS'conds'
p1081
g0
(g1
g2
(dp1082
S'cellModel'
p1083
S'HH_reduced'
p1084
sS'cellType'
p1085
S'PT'
p1086
sS'ynorm'
p1087
(lp1088
F0.52
aF0.77
astp1089
Rp1090
(dp1091
g1083
g1084
sg1085
g1086
sg1087
(lp1092
F0.52
aF0.77
asbstp1093
Rp1094
(dp1095
g4
(dp1096
g112
(dp1097
g20
(dp1098
g304
(dp1099
g306
F10.0
sg307
F42.0
sg308
F140.0
ssg312
(dp1100
g314
F5e-05
sg315
F132.4579341637009
sg316
F2.0
ssg30
(dp1101
g321
F54.4
sg322
F-104.0
sg323
F2.5
sssg43
(dp1102
g173
(dp1103
g335
F1.0
sg336
F1.0
sg337
F0.0
sg338
F0.002
sg339
F-2.1899738592999967
sg340
F5.09733585163e-05
sg341
F0.002
sg342
F1.0
sg343
F17.0
sg344
F155.67
ssg68
(dp1104
g349
F-88.5366550238
sg350
F5.404892936362239e-05
ssg45
(dp1105
g355
F0.000447365630734
ssg194
(dp1106
g360
F11.9
sg365
F0.00643
sg364
F0.193
sg363
F0.000140956438043
sg361
F154.9
sg362
F33.1
ssg58
(dp1107
g370
F-52.0967985869
sg371
F0.0898600246397
sg372
F0.0
sg373
F-59.7867409796
sg374
F32.7885075379
ssg214
(dp1108
g379
F4.60717910591e-06
ssg75
(dp1109
g384
F0.0131103978049
sg385
F0.0
sg386
F11.6427471384
ssg227
(dp1110
g391
F4.41583533572e-06
ssg51
(dp1111
g396
F0.0345117294903
sg397
F0.0
ssg239
(dp1112
g402
F99.1146852282
sg403
F0.119408607923
sg404
F0.0
sg405
F0.00024
sg406
F0.0
sssg8
(lp1113
g302
asg91
(dp1114
g93
F28.2149102762
sg95
F1.78829677463
sg96
I1
sg97
F48.4123467666
sg94
F114.510490019
sg98
(lp1115
(lp1116
I0
aI0
aI0
aF28.2149102762
aa(lp1117
I0
aF48.4123467666
aI0
aF28.2149102762
aassg108
(dp1118
sg117
F-75.0413649414
ssg460
(dp1119
g20
(dp1120
g467
(dp1121
g469
F10.0
sg470
F42.0
sg471
F140.0
ssg475
(dp1122
g477
F5e-05
sg478
F132.4579341637009
sg479
F2.0
ssg30
(dp1123
g484
F54.4
sg485
F-104.0
sg486
F2.5
sssg43
(dp1124
g173
(dp1125
g498
F1.0
sg499
F1.0
sg500
F0.0
sg501
F0.002
sg502
F-2.1899738592999967
sg503
F5.09733585163e-05
sg504
F0.002
sg505
F1.0
sg506
F17.0
sg507
F155.67
ssg68
(dp1126
g512
F-88.5366550238
sg513
F9.30129299683914e-05
ssg194
(dp1127
g518
F11.9
sg523
F0.00643
sg522
F0.193
sg521
F0.0009508884978406061
sg519
F154.9
sg520
F33.1
ssg58
(dp1128
g528
F-52.0967985869
sg529
F0.0898600246397
sg530
F0.0
sg531
F-59.7867409796
sg532
F32.7885075379
ssg214
(dp1129
g537
F4.60717910591e-06
ssg75
(dp1130
g542
F0.0131103978049
sg543
F0.0
sg544
F11.6427471384
ssg227
(dp1131
g549
F4.41583533572e-06
ssg51
(dp1132
g554
F0.0345117294903
sg555
F0.0
ssg239
(dp1133
g560
F99.1146852282
sg561
F0.119408607923
sg562
F0.0
sg563
F0.00024
sg564
F0.0
sssg8
(lp1134
g465
asg91
(dp1135
g93
F1.5831889597
sg95
F1.03418636866
sg96
I1
sg97
F290.25
sg94
F114.510490019
sg98
(lp1136
(lp1137
I0
aF48.4123467666
aI0
aF1.5831889597
aa(lp1138
I0
aF338.6623467666
aI0
aF1.5831889597
aassg108
(dp1139
g110
F0.0
sg111
g112
sg113
F1.0
ssg117
F-75.0413649414
ssg617
(dp1140
g20
(dp1141
g624
(dp1142
g626
F10.0
sg627
F42.0
sg628
F140.0
ssg632
(dp1143
g634
F5e-05
sg635
F132.4579341637009
sg636
F2.0
ssg30
(dp1144
g641
F54.4
sg642
F-104.0
sg643
F2.5
sssg43
(dp1145
g173
(dp1146
g655
F1.0
sg656
F1.0
sg657
F0.0
sg658
F0.002
sg659
F-2.1899738592999967
sg660
F5.09733585163e-05
sg661
F0.002
sg662
F1.0
sg663
F17.0
sg664
F155.67
ssg68
(dp1147
g669
F-88.5366550238
sg670
F9.30129299683914e-05
ssg194
(dp1148
g675
F11.9
sg680
F0.00643
sg679
F0.193
sg678
F0.00565
sg676
F154.9
sg677
F33.1
ssg58
(dp1149
g685
F-52.0967985869
sg686
F0.0898600246397
sg687
F0.0
sg688
F-59.7867409796
sg689
F32.7885075379
ssg214
(dp1150
g694
F4.60717910591e-06
ssg75
(dp1151
g699
F0.0131103978049
sg700
F0.0
sg701
F11.6427471384
ssg227
(dp1152
g706
F4.41583533572e-06
ssg51
(dp1153
g711
F0.0345117294903
sg712
F0.0
ssg239
(dp1154
g717
F99.1146852282
sg718
F0.119408607923
sg719
F0.0
sg720
F0.00024
sg721
F0.0
sssg8
(lp1155
g622
asg91
(dp1156
g93
F1.5831889597
sg95
F1.03418636866
sg96
I1
sg97
F290.25
sg94
F114.510490019
sg98
(lp1157
(lp1158
I0
aF338.6623467666
aI0
aF1.5831889597
aa(lp1159
I0
aF628.9123467666
aI0
aF1.5831889597
aassg108
(dp1160
g110
F0.0
sg111
g460
sg113
F1.0
ssg117
F-75.0413649414
ssg774
(dp1161
g20
(dp1162
g781
(dp1163
g783
F10.0
sg784
F42.0
sg785
F140.0
ssg789
(dp1164
g791
F5e-05
sg792
F132.4579341637009
sg793
F2.0
ssg30
(dp1165
g798
F54.4
sg799
F-104.0
sg800
F2.5
sssg43
(dp1166
g173
(dp1167
g812
F1.0
sg813
F1.0
sg814
F0.0
sg815
F0.002
sg816
F-2.1899738592999967
sg817
F5.09733585163e-05
sg818
F0.002
sg819
F1.0
sg820
F17.0
sg821
F155.67
ssg68
(dp1168
g826
F-88.5366550238
sg827
F9.30129299683914e-05
ssg194
(dp1169
g832
F11.9
sg837
F0.00643
sg836
F0.193
sg835
F0.00565
sg833
F154.9
sg834
F33.1
ssg58
(dp1170
g842
F-52.0967985869
sg843
F0.0898600246397
sg844
F0.0
sg845
F-59.7867409796
sg846
F32.7885075379
ssg214
(dp1171
g851
F4.60717910591e-06
ssg75
(dp1172
g856
F0.0131103978049
sg857
F0.0
sg858
F11.6427471384
ssg227
(dp1173
g863
F4.41583533572e-06
ssg51
(dp1174
g868
F0.0345117294903
sg869
F0.0
ssg239
(dp1175
g874
F99.1146852282
sg875
F0.119408607923
sg876
F0.0
sg877
F0.00024
sg878
F0.0
sssg8
(lp1176
g779
asg91
(dp1177
g93
F1.5831889597
sg95
F1.03418636866
sg96
I1
sg97
F290.25
sg94
F114.510490019
sg98
(lp1178
(lp1179
I0
aF628.9123467666
aI0
aF1.5831889597
aa(lp1180
I0
aF919.1623467666
aI0
aF1.5831889597
aassg108
(dp1181
g110
F0.0
sg111
g617
sg113
F1.0
ssg117
F-75.0413649414
ssg6
(dp1182
g20
(dp1183
g22
(dp1184
g24
F10.0
sg25
F42.0
sg26
F140.0
ssg30
(dp1185
g32
F54.4
sg33
F-104.0
sg34
F2.5
sssg43
(dp1186
g45
(dp1187
g47
F0.00894731261468
ssg51
(dp1188
g53
F0.1725586474515
sg54
F0.0
ssg58
(dp1189
g60
F-52.0967985869
sg61
F0.4493001231985
sg62
F0.0
sg63
F-59.7867409796
sg64
F32.7885075379
ssg68
(dp1190
g70
F-88.5366550238
sg71
F0.00025347188561059
ssg75
(dp1191
g77
F0.0655519890245
sg78
F0.0
sg79
F11.6427471384
sssg8
(lp1192
g19
asg91
(dp1193
g93
F1.40966286462
sg95
F1.01280903702
sg96
I1
sg97
F594.292937602
sg94
F114.510490019
sg98
(lp1194
(lp1195
I0
aI0
aI0
aF1.40966286462
aa(lp1196
I0
aF-594.292937602
aI0
aF1.40966286462
aassg108
(dp1197
g110
F0.0
sg111
g112
sg113
F0.0
ssg117
F-75.0413649414
ssg136
(dp1198
g20
(dp1199
g143
(dp1200
g145
F10.0
sg146
F42.0
sg147
F140.0
ssg151
(dp1201
g153
F5e-05
sg154
F132.4579341637009
sg155
F2.0
ssg30
(dp1202
g160
F54.4
sg161
F-104.0
sg162
F2.5
sssg43
(dp1203
g173
(dp1204
g175
F1.0
sg176
F1.0
sg177
F0.0
sg178
F0.002
sg179
F-2.1899738592999967
sg180
F5.09733585163e-05
sg181
F0.002
sg182
F1.0
sg183
F17.0
sg184
F155.67
ssg68
(dp1205
g189
F-88.5366550238
sg190
F7.620207783345154e-05
ssg194
(dp1206
g196
F11.9
sg201
F0.00643
sg200
F0.193
sg199
F0.000140956438043
sg197
F154.9
sg198
F33.1
ssg58
(dp1207
g206
F-52.0967985869
sg207
F0.0898600246397
sg208
F0.0
sg209
F-59.7867409796
sg210
F32.7885075379
ssg214
(dp1208
g216
F4.60717910591e-06
ssg75
(dp1209
g221
F0.0131103978049
sg222
F0.0
sg223
F11.6427471384
ssg227
(dp1210
g229
F4.41583533572e-06
ssg51
(dp1211
g234
F0.0345117294903
sg235
F0.0
ssg239
(dp1212
g241
F99.1146852282
sg242
F0.119408607923
sg243
F0.0
sg244
F0.00024
sg245
F0.0
sssg8
(lp1213
g141
asg91
(dp1214
g93
F2.2799248874
sg95
F1.89771901209
sg96
I1
sg97
F290.25
sg94
F114.510490019
sg98
(lp1215
(lp1216
I0
aI0
aI0
aF2.2799248874
aa(lp1217
F290.25
aI0
aI0
aF2.2799248874
aassg108
(dp1218
g110
F0.0
sg111
g112
sg113
F0.5
ssg117
F-75.0413649414
sssg1056
(dp1219
g1058
F34.0
sg1059
F-75.0413649414
sg1060
F-37.0
ssg1064
(dp1220
g1066
(lp1221
g460
ag617
ag774
ag136
asg1068
(lp1222
g460
ag617
ag774
asg1070
(lp1223
g460
ag617
ag774
ag136
asg1072
(lp1224
g112
assg1081
(dp1225
g1083
g1084
sg1085
g1086
sg1087
(lp1226
F0.52
aF0.77
assb.