ccopy_reg
_reconstructor
p0
(cnetpyne.specs
Dict
p1
c__builtin__
dict
p2
(dp3
S'secs'
p4
g0
(g1
g2
(dp5
S'soma'
p6
g0
(g1
g2
(dp7
S'weightNorm'
p8
(lp9
cnumpy.core.multiarray
scalar
p10
(cnumpy
dtype
p11
(S'f8'
p12
I0
I1
tp13
Rp14
(I3
S'<'
p15
NNNI-1
I-1
I0
tp16
bS'F^\x13l\x03TB?'
p17
tp18
Rp19
asS'ions'
p20
g0
(g1
g2
(dp21
S'na'
p22
g0
(g1
g2
(dp23
S'i'
p24
F10.0
sS'e'
p25
F50.0
sS'o'
p26
F140.0
stp27
Rp28
(dp29
g24
F10.0
sg25
F50.0
sg26
F140.0
sbsS'ca'
p30
g0
(g1
g2
(dp31
S'i'
p32
F5e-05
sS'e'
p33
F135.19704234845898
sS'o'
p34
F2.0
stp35
Rp36
(dp37
g32
F5e-05
sg33
F135.19704234845898
sg34
F2.0
sbsS'hi'
p38
g0
(g1
g2
(dp39
S'i'
p40
F1.0
sS'e'
p41
F0.0
sS'o'
p42
F1.0
stp43
Rp44
(dp45
g40
F1.0
sg41
F0.0
sg42
F1.0
sbsS'k'
p46
g0
(g1
g2
(dp47
S'i'
p48
F54.4
sS'e'
p49
F-78.59416264830958
sS'o'
p50
F2.5
stp51
Rp52
(dp53
g48
F54.4
sg49
F-78.59416264830958
sg50
F2.5
sbstp54
Rp55
(dp56
g22
(dp57
g24
F10.0
sg25
F50.0
sg26
F140.0
ssg30
(dp58
g32
F5e-05
sg33
F135.19704234845898
sg34
F2.0
ssg38
(dp59
g40
F1.0
sg41
F0.0
sg42
F1.0
ssg46
(dp60
g48
F54.4
sg49
F-78.59416264830958
sg50
F2.5
ssbsS'mechs'
p61
g0
(g1
g2
(dp62
S'kapin'
p63
g0
(g1
g2
(dp64
S'gkabar'
p65
F0.048
stp66
Rp67
(dp68
g65
F0.048
sbsS'pas'
p69
g0
(g1
g2
(dp70
S'e'
p71
F-72.32378075068927
sS'g'
p72
F0.0001
stp73
Rp74
(dp75
g71
F-72.32378075068927
sg72
F0.0001
sbsS'Nafx'
p76
g0
(g1
g2
(dp77
S'ar2'
p78
F1.0
sS'gnafbar'
p79
F0.045
stp80
Rp81
(dp82
g78
F1.0
sg79
F0.045
sbsS'canin'
p83
g0
(g1
g2
(dp84
S'gcalbar'
p85
F0.0003
stp86
Rp87
(dp88
g85
F0.0003
sbsS'IKsin'
p89
g0
(g1
g2
(dp90
S'gKsbar'
p91
F7.25e-05
stp92
Rp93
(dp94
g91
F7.25e-05
sbsS'cadyn'
p95
g0
(g1
g2
(dp96
tp97
Rp98
sS'kdrin'
p99
g0
(g1
g2
(dp100
S'gkdrbar'
p101
F0.018
stp102
Rp103
(dp104
g101
F0.018
sbsS'kctin'
p105
g0
(g1
g2
(dp106
S'gkcbar'
p107
F0.0001
stp108
Rp109
(dp110
g107
F0.0001
sbsS'hin'
p111
g0
(g1
g2
(dp112
S'vhalf'
p113
F-90.0
sS'K'
p114
F10.0
sS'gbar'
p115
F1e-05
stp116
Rp117
(dp118
g113
F-90.0
sg114
F10.0
sg115
F1e-05
sbstp119
Rp120
(dp121
g63
(dp122
g65
F0.048
ssg69
(dp123
g71
F-72.32378075068927
sg72
F0.0001
ssg76
(dp124
g78
F1.0
sg79
F0.045
ssg83
(dp125
g85
F0.0003
ssg89
(dp126
g91
F7.25e-05
ssg95
(dp127
sg99
(dp128
g101
F0.018
ssg105
(dp129
g107
F0.0001
ssg111
(dp130
g113
F-90.0
sg114
F10.0
sg115
F1e-05
ssbsS'geom'
p131
g0
(g1
g2
(dp132
S'nseg'
p133
I1
sS'diam'
p134
F29.0
sS'L'
p135
F27.0
sS'cm'
p136
F1.2
sS'Ra'
p137
F150.0
stp138
Rp139
(dp140
g133
I1
sg134
F29.0
sg135
F27.0
sg136
F1.2
sg137
F150.0
sbsS'topol'
p141
g0
(g1
g2
(dp142
tp143
Rp144
stp145
Rp146
(dp147
g8
(lp148
g19
asg20
(dp149
g22
(dp150
g24
F10.0
sg25
F50.0
sg26
F140.0
ssg30
(dp151
g32
F5e-05
sg33
F135.19704234845898
sg34
F2.0
ssg38
(dp152
g40
F1.0
sg41
F0.0
sg42
F1.0
ssg46
(dp153
g48
F54.4
sg49
F-78.59416264830958
sg50
F2.5
sssg61
(dp154
g63
(dp155
g65
F0.048
ssg69
(dp156
g71
F-72.32378075068927
sg72
F0.0001
ssg76
(dp157
g78
F1.0
sg79
F0.045
ssg83
(dp158
g85
F0.0003
ssg89
(dp159
g91
F7.25e-05
ssg95
(dp160
sg99
(dp161
g101
F0.018
ssg105
(dp162
g107
F0.0001
ssg111
(dp163
g113
F-90.0
sg114
F10.0
sg115
F1e-05
sssg131
(dp164
g133
I1
sg134
F29.0
sg135
F27.0
sg136
F1.2
sg137
F150.0
ssg141
(dp165
sbsS'axon'
p166
g0
(g1
g2
(dp167
g20
g0
(g1
g2
(dp168
S'na'
p169
g0
(g1
g2
(dp170
S'i'
p171
F10.0
sS'e'
p172
F50.0
sS'o'
p173
F140.0
stp174
Rp175
(dp176
g171
F10.0
sg172
F50.0
sg173
F140.0
sbsg46
g0
(g1
g2
(dp177
S'i'
p178
F54.4
sS'e'
p179
F-78.59416264830958
sS'o'
p180
F2.5
stp181
Rp182
(dp183
g178
F54.4
sg179
F-78.59416264830958
sg180
F2.5
sbstp184
Rp185
(dp186
g169
(dp187
g171
F10.0
sg172
F50.0
sg173
F140.0
ssg46
(dp188
g178
F54.4
sg179
F-78.59416264830958
sg180
F2.5
ssbsg61
g0
(g1
g2
(dp189
g76
g0
(g1
g2
(dp190
S'ar2'
p191
F1.0
sS'gnafbar'
p192
F0.44999999999999996
stp193
Rp194
(dp195
g191
F1.0
sg192
F0.44999999999999996
sbsg69
g0
(g1
g2
(dp196
S'e'
p197
F-73.08126475997032
sS'g'
p198
F0.0001
stp199
Rp200
(dp201
g197
F-73.08126475997032
sg198
F0.0001
sbsg99
g0
(g1
g2
(dp202
S'gkdrbar'
p203
F0.009
stp204
Rp205
(dp206
g203
F0.009
sbstp207
Rp208
(dp209
g76
(dp210
g191
F1.0
sg192
F0.44999999999999996
ssg69
(dp211
g197
F-73.08126475997032
sg198
F0.0001
ssg99
(dp212
g203
F0.009
ssbsg131
g0
(g1
g2
(dp213
g133
I1
sg134
F1.5
sg135
F115.0
sg136
F1.2
sg137
F150.0
stp214
Rp215
(dp216
g133
I1
sg134
F1.5
sg135
F115.0
sg136
F1.2
sg137
F150.0
sbsg141
g0
(g1
g2
(dp217
S'childX'
p218
F0.0
sS'parentSec'
p219
S'soma'
p220
sS'parentX'
p221
F0.5
stp222
Rp223
(dp224
g218
F0.0
sg219
g220
sg221
F0.5
sbstp225
Rp226
(dp227
g20
(dp228
g169
(dp229
g171
F10.0
sg172
F50.0
sg173
F140.0
ssg46
(dp230
g178
F54.4
sg179
F-78.59416264830958
sg180
F2.5
sssg61
(dp231
g76
(dp232
g191
F1.0
sg192
F0.44999999999999996
ssg69
(dp233
g197
F-73.08126475997032
sg198
F0.0001
ssg99
(dp234
g203
F0.009
sssg131
(dp235
g133
I1
sg134
F1.5
sg135
F115.0
sg136
F1.2
sg137
F150.0
ssg141
(dp236
g218
F0.0
sg219
g220
sg221
F0.5
ssbsS'dend'
p237
g0
(g1
g2
(dp238
g8
(lp239
g10
(g14
S'\x89k\xde@kbB?'
p240
tp241
Rp242
asg20
g0
(g1
g2
(dp243
S'na'
p244
g0
(g1
g2
(dp245
S'i'
p246
F10.0
sS'e'
p247
F50.0
sS'o'
p248
F140.0
stp249
Rp250
(dp251
g246
F10.0
sg247
F50.0
sg248
F140.0
sbsg46
g0
(g1
g2
(dp252
S'i'
p253
F54.4
sS'e'
p254
F-78.59416264830958
sS'o'
p255
F2.5
stp256
Rp257
(dp258
g253
F54.4
sg254
F-78.59416264830958
sg255
F2.5
sbstp259
Rp260
(dp261
g244
(dp262
g246
F10.0
sg247
F50.0
sg248
F140.0
ssg46
(dp263
g253
F54.4
sg254
F-78.59416264830958
sg255
F2.5
ssbsg61
g0
(g1
g2
(dp264
g63
g0
(g1
g2
(dp265
S'gkabar'
p266
F0.48
stp267
Rp268
(dp269
g266
F0.48
sbsg76
g0
(g1
g2
(dp270
S'ar2'
p271
F1.0
sS'gnafbar'
p272
F0.09
stp273
Rp274
(dp275
g271
F1.0
sg272
F0.09
sbsg69
g0
(g1
g2
(dp276
S'e'
p277
F-66.65251260579605
sS'g'
p278
F0.0001
stp279
Rp280
(dp281
g277
F-66.65251260579605
sg278
F0.0001
sbsg99
g0
(g1
g2
(dp282
S'gkdrbar'
p283
F0.009
stp284
Rp285
(dp286
g283
F0.009
sbstp287
Rp288
(dp289
g63
(dp290
g266
F0.48
ssg76
(dp291
g271
F1.0
sg272
F0.09
ssg69
(dp292
g277
F-66.65251260579605
sg278
F0.0001
ssg99
(dp293
g283
F0.009
ssbsg131
g0
(g1
g2
(dp294
g133
I1
sg134
F7.0
sg135
F44.0
sg136
F1.2
sg137
F150.0
stp295
Rp296
(dp297
g133
I1
sg134
F7.0
sg135
F44.0
sg136
F1.2
sg137
F150.0
sbsg141
g0
(g1
g2
(dp298
g218
F0.0
sg219
S'soma'
p299
sg221
F0.0
stp300
Rp301
(dp302
g218
F0.0
sg219
g299
sg221
F0.0
sbstp303
Rp304
(dp305
g8
(lp306
g242
asg20
(dp307
g244
(dp308
g246
F10.0
sg247
F50.0
sg248
F140.0
ssg46
(dp309
g253
F54.4
sg254
F-78.59416264830958
sg255
F2.5
sssg61
(dp310
g63
(dp311
g266
F0.48
ssg76
(dp312
g271
F1.0
sg272
F0.09
ssg69
(dp313
g277
F-66.65251260579605
sg278
F0.0001
ssg99
(dp314
g283
F0.009
sssg131
(dp315
g133
I1
sg134
F7.0
sg135
F44.0
sg136
F1.2
sg137
F150.0
ssg141
(dp316
g218
F0.0
sg219
g299
sg221
F0.0
ssbstp317
Rp318
(dp319
g6
(dp320
g8
(lp321
g19
asg20
(dp322
g22
(dp323
g24
F10.0
sg25
F50.0
sg26
F140.0
ssg30
(dp324
g32
F5e-05
sg33
F135.19704234845898
sg34
F2.0
ssg38
(dp325
g40
F1.0
sg41
F0.0
sg42
F1.0
ssg46
(dp326
g48
F54.4
sg49
F-78.59416264830958
sg50
F2.5
sssg61
(dp327
g63
(dp328
g65
F0.048
ssg69
(dp329
g71
F-72.32378075068927
sg72
F0.0001
ssg76
(dp330
g78
F1.0
sg79
F0.045
ssg83
(dp331
g85
F0.0003
ssg89
(dp332
g91
F7.25e-05
ssg95
(dp333
sg99
(dp334
g101
F0.018
ssg105
(dp335
g107
F0.0001
ssg111
(dp336
g113
F-90.0
sg114
F10.0
sg115
F1e-05
sssg131
(dp337
g133
I1
sg134
F29.0
sg135
F27.0
sg136
F1.2
sg137
F150.0
ssg141
(dp338
ssg166
(dp339
g20
(dp340
g169
(dp341
g171
F10.0
sg172
F50.0
sg173
F140.0
ssg46
(dp342
g178
F54.4
sg179
F-78.59416264830958
sg180
F2.5
sssg61
(dp343
g76
(dp344
g191
F1.0
sg192
F0.44999999999999996
ssg69
(dp345
g197
F-73.08126475997032
sg198
F0.0001
ssg99
(dp346
g203
F0.009
sssg131
(dp347
g133
I1
sg134
F1.5
sg135
F115.0
sg136
F1.2
sg137
F150.0
ssg141
(dp348
g218
F0.0
sg219
g220
sg221
F0.5
sssg237
(dp349
g8
(lp350
g242
asg20
(dp351
g244
(dp352
g246
F10.0
sg247
F50.0
sg248
F140.0
ssg46
(dp353
g253
F54.4
sg254
F-78.59416264830958
sg255
F2.5
sssg61
(dp354
g63
(dp355
g266
F0.48
ssg76
(dp356
g271
F1.0
sg272
F0.09
ssg69
(dp357
g277
F-66.65251260579605
sg278
F0.0001
ssg99
(dp358
g283
F0.009
sssg131
(dp359
g133
I1
sg134
F7.0
sg135
F44.0
sg136
F1.2
sg137
F150.0
ssg141
(dp360
g218
F0.0
sg219
g299
sg221
F0.0
sssbsS'globals'
p361
g0
(g1
g2
(dp362
S'ki0_k_ion'
p363
F140.0
sS'celsius'
p364
F23.0
sS'ko0_k_ion'
p365
F3.82
stp366
Rp367
(dp368
g363
F140.0
sg364
F23.0
sg365
F3.82
sbsS'secLists'
p369
g0
(g1
g2
(dp370
S'SectionList[1]'
p371
(lp372
S'soma'
p373
aS'axon'
p374
aS'dend'
p375
asS'spiny'
p376
(lp377
S'soma'
p378
aS'dend'
p379
asS'SectionList[0]'
p380
(lp381
S'soma'
p382
astp383
Rp384
(dp385
g371
(lp386
g373
ag374
ag375
asg376
(lp387
g378
ag379
asg380
(lp388
g382
asbsS'conds'
p389
g0
(g1
g2
(dp390
S'cellModel'
p391
S'HH_simple'
p392
sS'cellType'
p393
S'PV'
p394
stp395
Rp396
(dp397
g391
g392
sg393
g394
sbstp398
Rp399
(dp400
g4
(dp401
g6
(dp402
g8
(lp403
g19
asg20
(dp404
g22
(dp405
g24
F10.0
sg25
F50.0
sg26
F140.0
ssg30
(dp406
g32
F5e-05
sg33
F135.19704234845898
sg34
F2.0
ssg38
(dp407
g40
F1.0
sg41
F0.0
sg42
F1.0
ssg46
(dp408
g48
F54.4
sg49
F-78.59416264830958
sg50
F2.5
sssg61
(dp409
g63
(dp410
g65
F0.048
ssg69
(dp411
g71
F-72.32378075068927
sg72
F0.0001
ssg76
(dp412
g78
F1.0
sg79
F0.045
ssg83
(dp413
g85
F0.0003
ssg89
(dp414
g91
F7.25e-05
ssg95
(dp415
sg99
(dp416
g101
F0.018
ssg105
(dp417
g107
F0.0001
ssg111
(dp418
g113
F-90.0
sg114
F10.0
sg115
F1e-05
sssg131
(dp419
g133
I1
sg134
F29.0
sg135
F27.0
sg136
F1.2
sg137
F150.0
ssg141
(dp420
ssg166
(dp421
g20
(dp422
g169
(dp423
g171
F10.0
sg172
F50.0
sg173
F140.0
ssg46
(dp424
g178
F54.4
sg179
F-78.59416264830958
sg180
F2.5
sssg61
(dp425
g76
(dp426
g191
F1.0
sg192
F0.44999999999999996
ssg69
(dp427
g197
F-73.08126475997032
sg198
F0.0001
ssg99
(dp428
g203
F0.009
sssg131
(dp429
g133
I1
sg134
F1.5
sg135
F115.0
sg136
F1.2
sg137
F150.0
ssg141
(dp430
g218
F0.0
sg219
g220
sg221
F0.5
sssg237
(dp431
g8
(lp432
g242
asg20
(dp433
g244
(dp434
g246
F10.0
sg247
F50.0
sg248
F140.0
ssg46
(dp435
g253
F54.4
sg254
F-78.59416264830958
sg255
F2.5
sssg61
(dp436
g63
(dp437
g266
F0.48
ssg76
(dp438
g271
F1.0
sg272
F0.09
ssg69
(dp439
g277
F-66.65251260579605
sg278
F0.0001
ssg99
(dp440
g283
F0.009
sssg131
(dp441
g133
I1
sg134
F7.0
sg135
F44.0
sg136
F1.2
sg137
F150.0
ssg141
(dp442
g218
F0.0
sg219
g299
sg221
F0.0
ssssg361
(dp443
g363
F140.0
sg364
F23.0
sg365
F3.82
ssg369
(dp444
g371
(lp445
g373
ag374
ag375
asg376
(lp446
g378
ag379
asg380
(lp447
g382
assg389
(dp448
g391
g392
sg393
g394
ssb.