(dp0
S'popColors'
p1
(dp2
S'PT5B_ZD'
p3
(lp4
F0.04296875
aF0.140625
aF0.98046875
asS'CT6'
p5
(lp6
F0.08984375
aF0.6328125
aF0.2578125
asS'PV2'
p7
(lp8
F0.96484375
aF0.859375
aF0.43359375
asS'PV6'
p9
(lp10
F0.828125
aF0.671875
aF0.05078125
asS'SOM5A'
p11
(lp12
F0.95703125
aF0.6875
aF0.25390625
asS'SOM2'
p13
(lp14
F0.96875
aF0.765625
aF0.44140625
asS'IT5A'
p15
(lp16
F0.984375
aF0.05078125
aF0.10546875
asS'IT5B'
p17
(lp18
F0.7890625
aF0.05078125
aF0.10546875
asS'PT5B'
p19
(lp20
F0.04296875
aF0.140625
aF0.98046875
asS'PV5A'
p21
(lp22
F0.953125
aF0.8125
aF0.24609375
asS'PV5B'
p23
(lp24
F0.94140625
aF0.765625
aF0.05859375
asS'IT6'
p25
(lp26
F0.59375
aF0.05078125
aF0.10546875
asS'IT4'
p27
(lp28
F0.984375
aF0.24609375
aF0.30078125
asS'PT5B_1'
p29
(lp30
F0.04296875
aF0.140625
aF0.98046875
asS'IT2'
p31
(lp32
F0.984375
aF0.44140625
aF0.49609375
asS'SOM5B'
p33
(lp34
F0.94921875
aF0.609375
aF0.0703125
asS'SOM6'
p35
(lp36
F0.8359375
aF0.53515625
aF0.0625
ass.