ccopy_reg
_reconstructor
p0
(cnetpyne.specs
Dict
p1
c__builtin__
dict
p2
(dp3
S'secs'
p4
g0
(g1
g2
(dp5
S'soma'
p6
g0
(g1
g2
(dp7
S'weightNorm'
p8
(lp9
cnumpy.core.multiarray
scalar
p10
(cnumpy
dtype
p11
(S'f8'
p12
I0
I1
tp13
Rp14
(I3
S'<'
p15
NNNI-1
I-1
I0
tp16
bS'\xa9\x91\xd3r=4P?'
p17
tp18
Rp19
asS'ions'
p20
g0
(g1
g2
(dp21
S'na'
p22
g0
(g1
g2
(dp23
S'i'
p24
F10.0
sS'e'
p25
F50.0
sS'o'
p26
F140.0
stp27
Rp28
(dp29
g24
F10.0
sg25
F50.0
sg26
F140.0
sbsS'ca'
p30
g0
(g1
g2
(dp31
S'i'
p32
F5e-05
sS'e'
p33
F135.19704234845898
sS'o'
p34
F2.0
stp35
Rp36
(dp37
g32
F5e-05
sg33
F135.19704234845898
sg34
F2.0
sbsS'hi'
p38
g0
(g1
g2
(dp39
S'i'
p40
F1.0
sS'e'
p41
F0.0
sS'o'
p42
F1.0
stp43
Rp44
(dp45
g40
F1.0
sg41
F0.0
sg42
F1.0
sbsS'k'
p46
g0
(g1
g2
(dp47
S'i'
p48
F54.4
sS'e'
p49
F-78.59416264830958
sS'o'
p50
F2.5
stp51
Rp52
(dp53
g48
F54.4
sg49
F-78.59416264830958
sg50
F2.5
sbstp54
Rp55
(dp56
g22
(dp57
g24
F10.0
sg25
F50.0
sg26
F140.0
ssg30
(dp58
g32
F5e-05
sg33
F135.19704234845898
sg34
F2.0
ssg38
(dp59
g40
F1.0
sg41
F0.0
sg42
F1.0
ssg46
(dp60
g48
F54.4
sg49
F-78.59416264830958
sg50
F2.5
ssbsS'mechs'
p61
g0
(g1
g2
(dp62
S'kdrin'
p63
g0
(g1
g2
(dp64
S'gkdrbar'
p65
F0.018
stp66
Rp67
(dp68
g65
F0.018
sbsS'catcb'
p69
g0
(g1
g2
(dp70
S'gcatbar'
p71
F0.003
stp72
Rp73
(dp74
g71
F0.003
sbsS'pas'
p75
g0
(g1
g2
(dp76
S'e'
p77
F-54.03552476800474
sS'g'
p78
F2.5e-05
stp79
Rp80
(dp81
g77
F-54.03552476800474
sg78
F2.5e-05
sbsS'hin'
p82
g0
(g1
g2
(dp83
S'vhalf'
p84
F-90.0
sS'K'
p85
F10.0
sS'gbar'
p86
F2e-06
stp87
Rp88
(dp89
g84
F-90.0
sg85
F10.0
sg86
F2e-06
sbsS'Nafx'
p90
g0
(g1
g2
(dp91
S'ar2'
p92
F1.0
sS'gnafbar'
p93
F0.075
stp94
Rp95
(dp96
g92
F1.0
sg93
F0.075
sbsS'cadyn'
p97
g0
(g1
g2
(dp98
tp99
Rp100
sS'kapcb'
p101
g0
(g1
g2
(dp102
S'gkabar'
p103
F0.035
stp104
Rp105
(dp106
g103
F0.035
sbstp107
Rp108
(dp109
g75
(dp110
g77
F-54.03552476800474
sg78
F2.5e-05
ssg90
(dp111
g92
F1.0
sg93
F0.075
ssg97
(dp112
sg63
(dp113
g65
F0.018
ssg69
(dp114
g71
F0.003
ssg82
(dp115
g84
F-90.0
sg85
F10.0
sg86
F2e-06
ssg101
(dp116
g103
F0.035
ssbsS'geom'
p117
g0
(g1
g2
(dp118
S'nseg'
p119
I1
sS'diam'
p120
F42.0
sS'L'
p121
F42.0
sS'cm'
p122
F1.2
sS'Ra'
p123
F150.0
stp124
Rp125
(dp126
g119
I1
sg120
F42.0
sg121
F42.0
sg122
F1.2
sg123
F150.0
sbsS'topol'
p127
g0
(g1
g2
(dp128
tp129
Rp130
stp131
Rp132
(dp133
g8
(lp134
g19
asg20
(dp135
g22
(dp136
g24
F10.0
sg25
F50.0
sg26
F140.0
ssg30
(dp137
g32
F5e-05
sg33
F135.19704234845898
sg34
F2.0
ssg38
(dp138
g40
F1.0
sg41
F0.0
sg42
F1.0
ssg46
(dp139
g48
F54.4
sg49
F-78.59416264830958
sg50
F2.5
sssg61
(dp140
g75
(dp141
g77
F-54.03552476800474
sg78
F2.5e-05
ssg90
(dp142
g92
F1.0
sg93
F0.075
ssg97
(dp143
sg63
(dp144
g65
F0.018
ssg69
(dp145
g71
F0.003
ssg82
(dp146
g84
F-90.0
sg85
F10.0
sg86
F2e-06
ssg101
(dp147
g103
F0.035
sssg117
(dp148
g119
I1
sg120
F42.0
sg121
F42.0
sg122
F1.2
sg123
F150.0
ssg127
(dp149
sbsS'axon'
p150
g0
(g1
g2
(dp151
g20
g0
(g1
g2
(dp152
S'na'
p153
g0
(g1
g2
(dp154
S'i'
p155
F10.0
sS'e'
p156
F50.0
sS'o'
p157
F140.0
stp158
Rp159
(dp160
g155
F10.0
sg156
F50.0
sg157
F140.0
sbsg46
g0
(g1
g2
(dp161
S'i'
p162
F54.4
sS'e'
p163
F-78.59416264830958
sS'o'
p164
F2.5
stp165
Rp166
(dp167
g162
F54.4
sg163
F-78.59416264830958
sg164
F2.5
sbstp168
Rp169
(dp170
g153
(dp171
g155
F10.0
sg156
F50.0
sg157
F140.0
ssg46
(dp172
g162
F54.4
sg163
F-78.59416264830958
sg164
F2.5
ssbsg61
g0
(g1
g2
(dp173
g90
g0
(g1
g2
(dp174
S'ar2'
p175
F1.0
sS'gnafbar'
p176
F0.75
stp177
Rp178
(dp179
g175
F1.0
sg176
F0.75
sbsg75
g0
(g1
g2
(dp180
S'e'
p181
F-72.07505394400202
sS'g'
p182
F2.5e-05
stp183
Rp184
(dp185
g181
F-72.07505394400202
sg182
F2.5e-05
sbsg63
g0
(g1
g2
(dp186
S'gkdrbar'
p187
F0.009
stp188
Rp189
(dp190
g187
F0.009
sbstp191
Rp192
(dp193
g90
(dp194
g175
F1.0
sg176
F0.75
ssg75
(dp195
g181
F-72.07505394400202
sg182
F2.5e-05
ssg63
(dp196
g187
F0.009
ssbsg117
g0
(g1
g2
(dp197
g119
I1
sg120
F1.1
sg121
F113.22
sg122
F1.2
sg123
F150.0
stp198
Rp199
(dp200
g119
I1
sg120
F1.1
sg121
F113.22
sg122
F1.2
sg123
F150.0
sbsg127
g0
(g1
g2
(dp201
S'childX'
p202
F0.0
sS'parentSec'
p203
S'soma'
p204
sS'parentX'
p205
F0.5
stp206
Rp207
(dp208
g202
F0.0
sg203
g204
sg205
F0.5
sbstp209
Rp210
(dp211
g20
(dp212
g153
(dp213
g155
F10.0
sg156
F50.0
sg157
F140.0
ssg46
(dp214
g162
F54.4
sg163
F-78.59416264830958
sg164
F2.5
sssg61
(dp215
g90
(dp216
g175
F1.0
sg176
F0.75
ssg75
(dp217
g181
F-72.07505394400202
sg182
F2.5e-05
ssg63
(dp218
g187
F0.009
sssg117
(dp219
g119
I1
sg120
F1.1
sg121
F113.22
sg122
F1.2
sg123
F150.0
ssg127
(dp220
g202
F0.0
sg203
g204
sg205
F0.5
ssbsS'dend'
p221
g0
(g1
g2
(dp222
g8
(lp223
g10
(g14
S'3\xe8\xf0\xe5WKP?'
p224
tp225
Rp226
asg20
g0
(g1
g2
(dp227
S'na'
p228
g0
(g1
g2
(dp229
S'i'
p230
F10.0
sS'e'
p231
F50.0
sS'o'
p232
F140.0
stp233
Rp234
(dp235
g230
F10.0
sg231
F50.0
sg232
F140.0
sbsg46
g0
(g1
g2
(dp236
S'i'
p237
F54.4
sS'e'
p238
F-78.59416264830958
sS'o'
p239
F2.5
stp240
Rp241
(dp242
g237
F54.4
sg238
F-78.59416264830958
sg239
F2.5
sbstp243
Rp244
(dp245
g228
(dp246
g230
F10.0
sg231
F50.0
sg232
F140.0
ssg46
(dp247
g237
F54.4
sg238
F-78.59416264830958
sg239
F2.5
ssbsg61
g0
(g1
g2
(dp248
g90
g0
(g1
g2
(dp249
S'ar2'
p250
F1.0
sS'gnafbar'
p251
F0.018
stp252
Rp253
(dp254
g250
F1.0
sg251
F0.018
sbsg75
g0
(g1
g2
(dp255
S'e'
p256
F-60.93996229584698
sS'g'
p257
F2.5e-05
stp258
Rp259
(dp260
g256
F-60.93996229584698
sg257
F2.5e-05
sbsg101
g0
(g1
g2
(dp261
S'gkabar'
p262
F0.00875
stp263
Rp264
(dp265
g262
F0.00875
sbsg63
g0
(g1
g2
(dp266
S'gkdrbar'
p267
F0.009
stp268
Rp269
(dp270
g267
F0.009
sbstp271
Rp272
(dp273
g90
(dp274
g250
F1.0
sg251
F0.018
ssg75
(dp275
g256
F-60.93996229584698
sg257
F2.5e-05
ssg101
(dp276
g262
F0.00875
ssg63
(dp277
g267
F0.009
ssbsg117
g0
(g1
g2
(dp278
g119
I1
sg120
F7.0
sg121
F176.0
sg122
F1.2
sg123
F150.0
stp279
Rp280
(dp281
g119
I1
sg120
F7.0
sg121
F176.0
sg122
F1.2
sg123
F150.0
sbsg127
g0
(g1
g2
(dp282
g202
F0.0
sg203
S'soma'
p283
sg205
F0.0
stp284
Rp285
(dp286
g202
F0.0
sg203
g283
sg205
F0.0
sbstp287
Rp288
(dp289
g8
(lp290
g226
asg20
(dp291
g228
(dp292
g230
F10.0
sg231
F50.0
sg232
F140.0
ssg46
(dp293
g237
F54.4
sg238
F-78.59416264830958
sg239
F2.5
sssg61
(dp294
g90
(dp295
g250
F1.0
sg251
F0.018
ssg75
(dp296
g256
F-60.93996229584698
sg257
F2.5e-05
ssg101
(dp297
g262
F0.00875
ssg63
(dp298
g267
F0.009
sssg117
(dp299
g119
I1
sg120
F7.0
sg121
F176.0
sg122
F1.2
sg123
F150.0
ssg127
(dp300
g202
F0.0
sg203
g283
sg205
F0.0
ssbstp301
Rp302
(dp303
g6
(dp304
g8
(lp305
g19
asg20
(dp306
g22
(dp307
g24
F10.0
sg25
F50.0
sg26
F140.0
ssg30
(dp308
g32
F5e-05
sg33
F135.19704234845898
sg34
F2.0
ssg38
(dp309
g40
F1.0
sg41
F0.0
sg42
F1.0
ssg46
(dp310
g48
F54.4
sg49
F-78.59416264830958
sg50
F2.5
sssg61
(dp311
g75
(dp312
g77
F-54.03552476800474
sg78
F2.5e-05
ssg90
(dp313
g92
F1.0
sg93
F0.075
ssg97
(dp314
sg63
(dp315
g65
F0.018
ssg69
(dp316
g71
F0.003
ssg82
(dp317
g84
F-90.0
sg85
F10.0
sg86
F2e-06
ssg101
(dp318
g103
F0.035
sssg117
(dp319
g119
I1
sg120
F42.0
sg121
F42.0
sg122
F1.2
sg123
F150.0
ssg127
(dp320
ssg150
(dp321
g20
(dp322
g153
(dp323
g155
F10.0
sg156
F50.0
sg157
F140.0
ssg46
(dp324
g162
F54.4
sg163
F-78.59416264830958
sg164
F2.5
sssg61
(dp325
g90
(dp326
g175
F1.0
sg176
F0.75
ssg75
(dp327
g181
F-72.07505394400202
sg182
F2.5e-05
ssg63
(dp328
g187
F0.009
sssg117
(dp329
g119
I1
sg120
F1.1
sg121
F113.22
sg122
F1.2
sg123
F150.0
ssg127
(dp330
g202
F0.0
sg203
g204
sg205
F0.5
sssg221
(dp331
g8
(lp332
g226
asg20
(dp333
g228
(dp334
g230
F10.0
sg231
F50.0
sg232
F140.0
ssg46
(dp335
g237
F54.4
sg238
F-78.59416264830958
sg239
F2.5
sssg61
(dp336
g90
(dp337
g250
F1.0
sg251
F0.018
ssg75
(dp338
g256
F-60.93996229584698
sg257
F2.5e-05
ssg101
(dp339
g262
F0.00875
ssg63
(dp340
g267
F0.009
sssg117
(dp341
g119
I1
sg120
F7.0
sg121
F176.0
sg122
F1.2
sg123
F150.0
ssg127
(dp342
g202
F0.0
sg203
g283
sg205
F0.0
sssbsS'globals'
p343
g0
(g1
g2
(dp344
S'ki0_k_ion'
p345
F140.0
sS'hinf_catcb'
p346
F0.3068442636178239
sS'minf_catcb'
p347
F0.0358812246203101
sS'celsius'
p348
F23.0
sS'ko0_k_ion'
p349
F3.82
stp350
Rp351
(dp352
g345
F140.0
sg346
F0.3068442636178239
sg347
F0.0358812246203101
sg348
F23.0
sg349
F3.82
sbsS'secLists'
p353
g0
(g1
g2
(dp354
S'SectionList[2]'
p355
(lp356
S'soma'
p357
asS'spiny'
p358
(lp359
S'soma'
p360
aS'dend'
p361
asS'SectionList[3]'
p362
(lp363
S'soma'
p364
aS'axon'
p365
aS'dend'
p366
asS'SectionList[1]'
p367
(lp368
sS'SectionList[0]'
p369
(lp370
stp371
Rp372
(dp373
g355
(lp374
g357
asg358
(lp375
g360
ag361
asg362
(lp376
g364
ag365
ag366
asg367
(lp377
sg369
(lp378
sbsS'conds'
p379
g0
(g1
g2
(dp380
S'cellModel'
p381
S'HH_simple'
p382
sS'cellType'
p383
S'SOM'
p384
stp385
Rp386
(dp387
g381
g382
sg383
g384
sbstp388
Rp389
(dp390
g4
(dp391
g6
(dp392
g8
(lp393
g19
asg20
(dp394
g22
(dp395
g24
F10.0
sg25
F50.0
sg26
F140.0
ssg30
(dp396
g32
F5e-05
sg33
F135.19704234845898
sg34
F2.0
ssg38
(dp397
g40
F1.0
sg41
F0.0
sg42
F1.0
ssg46
(dp398
g48
F54.4
sg49
F-78.59416264830958
sg50
F2.5
sssg61
(dp399
g75
(dp400
g77
F-54.03552476800474
sg78
F2.5e-05
ssg90
(dp401
g92
F1.0
sg93
F0.075
ssg97
(dp402
sg63
(dp403
g65
F0.018
ssg69
(dp404
g71
F0.003
ssg82
(dp405
g84
F-90.0
sg85
F10.0
sg86
F2e-06
ssg101
(dp406
g103
F0.035
sssg117
(dp407
g119
I1
sg120
F42.0
sg121
F42.0
sg122
F1.2
sg123
F150.0
ssg127
(dp408
ssg150
(dp409
g20
(dp410
g153
(dp411
g155
F10.0
sg156
F50.0
sg157
F140.0
ssg46
(dp412
g162
F54.4
sg163
F-78.59416264830958
sg164
F2.5
sssg61
(dp413
g90
(dp414
g175
F1.0
sg176
F0.75
ssg75
(dp415
g181
F-72.07505394400202
sg182
F2.5e-05
ssg63
(dp416
g187
F0.009
sssg117
(dp417
g119
I1
sg120
F1.1
sg121
F113.22
sg122
F1.2
sg123
F150.0
ssg127
(dp418
g202
F0.0
sg203
g204
sg205
F0.5
sssg221
(dp419
g8
(lp420
g226
asg20
(dp421
g228
(dp422
g230
F10.0
sg231
F50.0
sg232
F140.0
ssg46
(dp423
g237
F54.4
sg238
F-78.59416264830958
sg239
F2.5
sssg61
(dp424
g90
(dp425
g250
F1.0
sg251
F0.018
ssg75
(dp426
g256
F-60.93996229584698
sg257
F2.5e-05
ssg101
(dp427
g262
F0.00875
ssg63
(dp428
g267
F0.009
sssg117
(dp429
g119
I1
sg120
F7.0
sg121
F176.0
sg122
F1.2
sg123
F150.0
ssg127
(dp430
g202
F0.0
sg203
g283
sg205
F0.0
ssssg343
(dp431
g345
F140.0
sg346
F0.3068442636178239
sg347
F0.0358812246203101
sg348
F23.0
sg349
F3.82
ssg353
(dp432
g355
(lp433
g357
asg358
(lp434
g360
ag361
asg362
(lp435
g364
ag365
ag366
asg367
(lp436
sg369
(lp437
ssg379
(dp438
g381
g382
sg383
g384
ssb.