(dp0
S'density'
p1
(dp2
(S'M1'
p3
S'SOM'
p4
tp5
(lp6
F5742.0
aF3126.0
aF5849.0
aF8497.0
aF4897.0
asS'Tsai09'
p7
(lp8
I114858
aI105269
aI84396
aI122616
aI148408
as(g3
S'E'
p9
tp10
(lp11
F97457.013
aF95794.79000000001
aF66672.84
aF96866.64
aF133567.2
as(g3
S'PV'
p12
tp13
(lp14
F11659.0
aF6348.0
aF11875.0
aF17252.0
aF9943.0
as(g3
S'I'
p15
tp16
(lp17
F17400.987
aF9474.21
aF17723.16
aF25749.36
aF14840.800000000001
ass.