(dp0
S'density'
p1
(dp2
(S'M1'
p3
S'SOM'
p4
tp5
(lp6
F5624.0
aF3282.0
aF5926.0
aF7995.0
aF4751.0
aF4930.0
asS'Tsai09'
p7
(lp8
F112485.0
aF110496.0
aF85515.0
aF115371.0
aF143965.0
as(g3
S'E'
p9
tp10
(lp11
F95443.5225
aF100551.36
aF67556.85
aF91143.09000000001
aF129568.5
as(g3
S'PV'
p12
tp13
(lp14
F11418.0
aF6663.0
aF12032.0
aF16233.0
aF9646.0
aF10009.0
as(g3
S'I'
p15
tp16
(lp17
F17041.4775
aF9944.64
aF17958.149999999998
aF24227.91
aF14396.5
aF14938.710833333334
ass.